
Serial_Data_Print.elf:     file format elf32-littlearm

Sections:
Idx Name          Size      VMA       LMA       File off  Algn
  0 .isr_vector   0000010c  08000000  08000000  00001000  2**0
                  CONTENTS, ALLOC, LOAD, READONLY, DATA
  1 .text         00001fac  0800010c  0800010c  0000110c  2**2
                  CONTENTS, ALLOC, LOAD, READONLY, CODE
  2 .rodata       00000080  080020b8  080020b8  000030b8  2**2
                  CONTENTS, ALLOC, LOAD, READONLY, DATA
  3 .ARM.extab    00000000  08002138  08002138  0000405c  2**0
                  CONTENTS
  4 .ARM          00000000  08002138  08002138  0000405c  2**0
                  CONTENTS
  5 .preinit_array 00000000  08002138  08002138  0000405c  2**0
                  CONTENTS, ALLOC, LOAD, DATA
  6 .init_array   00000004  08002138  08002138  00003138  2**2
                  CONTENTS, ALLOC, LOAD, READONLY, DATA
  7 .fini_array   00000004  0800213c  0800213c  0000313c  2**2
                  CONTENTS, ALLOC, LOAD, READONLY, DATA
  8 .data         0000005c  20000000  08002140  00004000  2**2
                  CONTENTS, ALLOC, LOAD, DATA
  9 .bss          000001b4  2000005c  0800219c  0000405c  2**2
                  ALLOC
 10 ._user_heap_stack 00000600  20000210  0800219c  00004210  2**0
                  ALLOC
 11 .ARM.attributes 00000029  00000000  00000000  0000405c  2**0
                  CONTENTS, READONLY
 12 .debug_info   00006398  00000000  00000000  00004085  2**0
                  CONTENTS, READONLY, DEBUGGING, OCTETS
 13 .debug_abbrev 0000131a  00000000  00000000  0000a41d  2**0
                  CONTENTS, READONLY, DEBUGGING, OCTETS
 14 .debug_aranges 00000610  00000000  00000000  0000b738  2**3
                  CONTENTS, READONLY, DEBUGGING, OCTETS
 15 .debug_rnglists 0000049a  00000000  00000000  0000bd48  2**0
                  CONTENTS, READONLY, DEBUGGING, OCTETS
 16 .debug_macro  000160db  00000000  00000000  0000c1e2  2**0
                  CONTENTS, READONLY, DEBUGGING, OCTETS
 17 .debug_line   000078b3  00000000  00000000  000222bd  2**0
                  CONTENTS, READONLY, DEBUGGING, OCTETS
 18 .debug_str    000802e1  00000000  00000000  00029b70  2**0
                  CONTENTS, READONLY, DEBUGGING, OCTETS
 19 .comment      00000043  00000000  00000000  000a9e51  2**0
                  CONTENTS, READONLY
 20 .debug_frame  00001c70  00000000  00000000  000a9e94  2**2
                  CONTENTS, READONLY, DEBUGGING, OCTETS
 21 .debug_line_str 0000006e  00000000  00000000  000abb04  2**0
                  CONTENTS, READONLY, DEBUGGING, OCTETS

Disassembly of section .text:

0800010c <__do_global_dtors_aux>:
 800010c:	b510      	push	{r4, lr}
 800010e:	4c05      	ldr	r4, [pc, #20]	@ (8000124 <__do_global_dtors_aux+0x18>)
 8000110:	7823      	ldrb	r3, [r4, #0]
 8000112:	b933      	cbnz	r3, 8000122 <__do_global_dtors_aux+0x16>
 8000114:	4b04      	ldr	r3, [pc, #16]	@ (8000128 <__do_global_dtors_aux+0x1c>)
 8000116:	b113      	cbz	r3, 800011e <__do_global_dtors_aux+0x12>
 8000118:	4804      	ldr	r0, [pc, #16]	@ (800012c <__do_global_dtors_aux+0x20>)
 800011a:	f3af 8000 	nop.w
 800011e:	2301      	movs	r3, #1
 8000120:	7023      	strb	r3, [r4, #0]
 8000122:	bd10      	pop	{r4, pc}
 8000124:	2000005c 	.word	0x2000005c
 8000128:	00000000 	.word	0x00000000
 800012c:	080020a0 	.word	0x080020a0

08000130 <frame_dummy>:
 8000130:	b508      	push	{r3, lr}
 8000132:	4b03      	ldr	r3, [pc, #12]	@ (8000140 <frame_dummy+0x10>)
 8000134:	b11b      	cbz	r3, 800013e <frame_dummy+0xe>
 8000136:	4903      	ldr	r1, [pc, #12]	@ (8000144 <frame_dummy+0x14>)
 8000138:	4803      	ldr	r0, [pc, #12]	@ (8000148 <frame_dummy+0x18>)
 800013a:	f3af 8000 	nop.w
 800013e:	bd08      	pop	{r3, pc}
 8000140:	00000000 	.word	0x00000000
 8000144:	20000060 	.word	0x20000060
 8000148:	080020a0 	.word	0x080020a0

0800014c <main>:
/**
  * @brief  The application entry point.
  * @retval int
  */
int main(void)
{
 800014c:	b580      	push	{r7, lr}
 800014e:	b08a      	sub	sp, #40	@ 0x28
 8000150:	af00      	add	r7, sp, #0

  /* USER CODE BEGIN 1 */
	uint8_t message[35] = {'\0'};
 8000152:	2300      	movs	r3, #0
 8000154:	607b      	str	r3, [r7, #4]
 8000156:	f107 0308 	add.w	r3, r7, #8
 800015a:	221f      	movs	r2, #31
 800015c:	2100      	movs	r1, #0
 800015e:	4618      	mov	r0, r3
 8000160:	f001 fb0e 	bl	8001780 <memset>
	//char Message[] = "Write anything on Serial Terminal\r\n"; /* Message to be transmitted through UART */
	uint8_t num = 0;
 8000164:	2300      	movs	r3, #0
 8000166:	f887 3027 	strb.w	r3, [r7, #39]	@ 0x27
  /* USER CODE END 1 */

  /* MCU Configuration--------------------------------------------------------*/

  /* Reset of all peripherals, Initializes the Flash interface and the Systick. */
  HAL_Init();
 800016a:	f000 f9c7 	bl	80004fc <HAL_Init>
  /* USER CODE BEGIN Init */

  /* USER CODE END Init */

  /* Configure the system clock */
  SystemClock_Config();
 800016e:	f000 f821 	bl	80001b4 <SystemClock_Config>
  /* USER CODE BEGIN SysInit */

  /* USER CODE END SysInit */

  /* Initialize all configured peripherals */
  MX_GPIO_Init();
 8000172:	f000 f88f 	bl	8000294 <MX_GPIO_Init>
  MX_USART1_UART_Init();
 8000176:	f000 f863 	bl	8000240 <MX_USART1_UART_Init>
  /* Infinite loop */
  /* USER CODE BEGIN WHILE */
  while (1)
  {
    /* USER CODE END WHILE */
	  sprintf(message, "Welcome to lab! Counting = %d\r\n", num);
 800017a:	f897 2027 	ldrb.w	r2, [r7, #39]	@ 0x27
 800017e:	1d3b      	adds	r3, r7, #4
 8000180:	490a      	ldr	r1, [pc, #40]	@ (80001ac <main+0x60>)
 8000182:	4618      	mov	r0, r3
 8000184:	f001 fadc 	bl	8001740 <siprintf>
	  HAL_UART_Transmit(&huart1, message, sizeof(message), 100);
 8000188:	1d39      	adds	r1, r7, #4
 800018a:	2364      	movs	r3, #100	@ 0x64
 800018c:	2223      	movs	r2, #35	@ 0x23
 800018e:	4808      	ldr	r0, [pc, #32]	@ (80001b0 <main+0x64>)
 8000190:	f001 f902 	bl	8001398 <HAL_UART_Transmit>
	  HAL_Delay(500);
 8000194:	f44f 70fa 	mov.w	r0, #500	@ 0x1f4
 8000198:	f000 fa12 	bl	80005c0 <HAL_Delay>
	  num++;
 800019c:	f897 3027 	ldrb.w	r3, [r7, #39]	@ 0x27
 80001a0:	3301      	adds	r3, #1
 80001a2:	f887 3027 	strb.w	r3, [r7, #39]	@ 0x27
  {
 80001a6:	bf00      	nop
 80001a8:	e7e7      	b.n	800017a <main+0x2e>
 80001aa:	bf00      	nop
 80001ac:	080020b8 	.word	0x080020b8
 80001b0:	20000078 	.word	0x20000078

080001b4 <SystemClock_Config>:
/**
  * @brief System Clock Configuration
  * @retval None
  */
void SystemClock_Config(void)
{
 80001b4:	b580      	push	{r7, lr}
 80001b6:	b090      	sub	sp, #64	@ 0x40
 80001b8:	af00      	add	r7, sp, #0
  RCC_OscInitTypeDef RCC_OscInitStruct = {0};
 80001ba:	f107 0318 	add.w	r3, r7, #24
 80001be:	2228      	movs	r2, #40	@ 0x28
 80001c0:	2100      	movs	r1, #0
 80001c2:	4618      	mov	r0, r3
 80001c4:	f001 fadc 	bl	8001780 <memset>
  RCC_ClkInitTypeDef RCC_ClkInitStruct = {0};
 80001c8:	1d3b      	adds	r3, r7, #4
 80001ca:	2200      	movs	r2, #0
 80001cc:	601a      	str	r2, [r3, #0]
 80001ce:	605a      	str	r2, [r3, #4]
 80001d0:	609a      	str	r2, [r3, #8]
 80001d2:	60da      	str	r2, [r3, #12]
 80001d4:	611a      	str	r2, [r3, #16]

  /** Initializes the RCC Oscillators according to the specified parameters
  * in the RCC_OscInitTypeDef structure.
  */
  RCC_OscInitStruct.OscillatorType = RCC_OSCILLATORTYPE_HSE;
 80001d6:	2301      	movs	r3, #1
 80001d8:	61bb      	str	r3, [r7, #24]
  RCC_OscInitStruct.HSEState = RCC_HSE_ON;
 80001da:	f44f 3380 	mov.w	r3, #65536	@ 0x10000
 80001de:	61fb      	str	r3, [r7, #28]
  RCC_OscInitStruct.HSEPredivValue = RCC_HSE_PREDIV_DIV1;
 80001e0:	2300      	movs	r3, #0
 80001e2:	623b      	str	r3, [r7, #32]
  RCC_OscInitStruct.HSIState = RCC_HSI_ON;
 80001e4:	2301      	movs	r3, #1
 80001e6:	62bb      	str	r3, [r7, #40]	@ 0x28
  RCC_OscInitStruct.PLL.PLLState = RCC_PLL_ON;
 80001e8:	2302      	movs	r3, #2
 80001ea:	637b      	str	r3, [r7, #52]	@ 0x34
  RCC_OscInitStruct.PLL.PLLSource = RCC_PLLSOURCE_HSE;
 80001ec:	f44f 3380 	mov.w	r3, #65536	@ 0x10000
 80001f0:	63bb      	str	r3, [r7, #56]	@ 0x38
  RCC_OscInitStruct.PLL.PLLMUL = RCC_PLL_MUL9;
 80001f2:	f44f 13e0 	mov.w	r3, #1835008	@ 0x1c0000
 80001f6:	63fb      	str	r3, [r7, #60]	@ 0x3c
  if (HAL_RCC_OscConfig(&RCC_OscInitStruct) != HAL_OK)
 80001f8:	f107 0318 	add.w	r3, r7, #24
 80001fc:	4618      	mov	r0, r3
 80001fe:	f000 fc6b 	bl	8000ad8 <HAL_RCC_OscConfig>
 8000202:	4603      	mov	r3, r0
 8000204:	2b00      	cmp	r3, #0
 8000206:	d001      	beq.n	800020c <SystemClock_Config+0x58>
  {
    Error_Handler();
 8000208:	f000 f866 	bl	80002d8 <Error_Handler>
  }

  /** Initializes the CPU, AHB and APB buses clocks
  */
  RCC_ClkInitStruct.ClockType = RCC_CLOCKTYPE_HCLK|RCC_CLOCKTYPE_SYSCLK
 800020c:	230f      	movs	r3, #15
 800020e:	607b      	str	r3, [r7, #4]
                              |RCC_CLOCKTYPE_PCLK1|RCC_CLOCKTYPE_PCLK2;
  RCC_ClkInitStruct.SYSCLKSource = RCC_SYSCLKSOURCE_PLLCLK;
 8000210:	2302      	movs	r3, #2
 8000212:	60bb      	str	r3, [r7, #8]
  RCC_ClkInitStruct.AHBCLKDivider = RCC_SYSCLK_DIV1;
 8000214:	2300      	movs	r3, #0
 8000216:	60fb      	str	r3, [r7, #12]
  RCC_ClkInitStruct.APB1CLKDivider = RCC_HCLK_DIV2;
 8000218:	f44f 6380 	mov.w	r3, #1024	@ 0x400
 800021c:	613b      	str	r3, [r7, #16]
  RCC_ClkInitStruct.APB2CLKDivider = RCC_HCLK_DIV1;
 800021e:	2300      	movs	r3, #0
 8000220:	617b      	str	r3, [r7, #20]

  if (HAL_RCC_ClockConfig(&RCC_ClkInitStruct, FLASH_LATENCY_2) != HAL_OK)
 8000222:	1d3b      	adds	r3, r7, #4
 8000224:	2102      	movs	r1, #2
 8000226:	4618      	mov	r0, r3
 8000228:	f000 fed8 	bl	8000fdc <HAL_RCC_ClockConfig>
 800022c:	4603      	mov	r3, r0
 800022e:	2b00      	cmp	r3, #0
 8000230:	d001      	beq.n	8000236 <SystemClock_Config+0x82>
  {
    Error_Handler();
 8000232:	f000 f851 	bl	80002d8 <Error_Handler>
  }
}
 8000236:	bf00      	nop
 8000238:	3740      	adds	r7, #64	@ 0x40
 800023a:	46bd      	mov	sp, r7
 800023c:	bd80      	pop	{r7, pc}
	...

08000240 <MX_USART1_UART_Init>:
  * @brief USART1 Initialization Function
  * @param None
  * @retval None
  */
static void MX_USART1_UART_Init(void)
{
 8000240:	b580      	push	{r7, lr}
 8000242:	af00      	add	r7, sp, #0
  /* USER CODE END USART1_Init 0 */

  /* USER CODE BEGIN USART1_Init 1 */

  /* USER CODE END USART1_Init 1 */
  huart1.Instance = USART1;
 8000244:	4b11      	ldr	r3, [pc, #68]	@ (800028c <MX_USART1_UART_Init+0x4c>)
 8000246:	4a12      	ldr	r2, [pc, #72]	@ (8000290 <MX_USART1_UART_Init+0x50>)
 8000248:	601a      	str	r2, [r3, #0]
  huart1.Init.BaudRate = 115200;
 800024a:	4b10      	ldr	r3, [pc, #64]	@ (800028c <MX_USART1_UART_Init+0x4c>)
 800024c:	f44f 32e1 	mov.w	r2, #115200	@ 0x1c200
 8000250:	605a      	str	r2, [r3, #4]
  huart1.Init.WordLength = UART_WORDLENGTH_8B;
 8000252:	4b0e      	ldr	r3, [pc, #56]	@ (800028c <MX_USART1_UART_Init+0x4c>)
 8000254:	2200      	movs	r2, #0
 8000256:	609a      	str	r2, [r3, #8]
  huart1.Init.StopBits = UART_STOPBITS_1;
 8000258:	4b0c      	ldr	r3, [pc, #48]	@ (800028c <MX_USART1_UART_Init+0x4c>)
 800025a:	2200      	movs	r2, #0
 800025c:	60da      	str	r2, [r3, #12]
  huart1.Init.Parity = UART_PARITY_NONE;
 800025e:	4b0b      	ldr	r3, [pc, #44]	@ (800028c <MX_USART1_UART_Init+0x4c>)
 8000260:	2200      	movs	r2, #0
 8000262:	611a      	str	r2, [r3, #16]
  huart1.Init.Mode = UART_MODE_TX_RX;
 8000264:	4b09      	ldr	r3, [pc, #36]	@ (800028c <MX_USART1_UART_Init+0x4c>)
 8000266:	220c      	movs	r2, #12
 8000268:	615a      	str	r2, [r3, #20]
  huart1.Init.HwFlowCtl = UART_HWCONTROL_NONE;
 800026a:	4b08      	ldr	r3, [pc, #32]	@ (800028c <MX_USART1_UART_Init+0x4c>)
 800026c:	2200      	movs	r2, #0
 800026e:	619a      	str	r2, [r3, #24]
  huart1.Init.OverSampling = UART_OVERSAMPLING_16;
 8000270:	4b06      	ldr	r3, [pc, #24]	@ (800028c <MX_USART1_UART_Init+0x4c>)
 8000272:	2200      	movs	r2, #0
 8000274:	61da      	str	r2, [r3, #28]
  if (HAL_UART_Init(&huart1) != HAL_OK)
 8000276:	4805      	ldr	r0, [pc, #20]	@ (800028c <MX_USART1_UART_Init+0x4c>)
 8000278:	f001 f83e 	bl	80012f8 <HAL_UART_Init>
 800027c:	4603      	mov	r3, r0
 800027e:	2b00      	cmp	r3, #0
 8000280:	d001      	beq.n	8000286 <MX_USART1_UART_Init+0x46>
  {
    Error_Handler();
 8000282:	f000 f829 	bl	80002d8 <Error_Handler>
  }
  /* USER CODE BEGIN USART1_Init 2 */

  /* USER CODE END USART1_Init 2 */

}
 8000286:	bf00      	nop
 8000288:	bd80      	pop	{r7, pc}
 800028a:	bf00      	nop
 800028c:	20000078 	.word	0x20000078
 8000290:	40013800 	.word	0x40013800

08000294 <MX_GPIO_Init>:
  * @brief GPIO Initialization Function
  * @param None
  * @retval None
  */
static void MX_GPIO_Init(void)
{
 8000294:	b480      	push	{r7}
 8000296:	b083      	sub	sp, #12
 8000298:	af00      	add	r7, sp, #0
/* USER CODE BEGIN MX_GPIO_Init_1 */
/* USER CODE END MX_GPIO_Init_1 */

  /* GPIO Ports Clock Enable */
  __HAL_RCC_GPIOD_CLK_ENABLE();
 800029a:	4b0e      	ldr	r3, [pc, #56]	@ (80002d4 <MX_GPIO_Init+0x40>)
 800029c:	699b      	ldr	r3, [r3, #24]
 800029e:	4a0d      	ldr	r2, [pc, #52]	@ (80002d4 <MX_GPIO_Init+0x40>)
 80002a0:	f043 0320 	orr.w	r3, r3, #32
 80002a4:	6193      	str	r3, [r2, #24]
 80002a6:	4b0b      	ldr	r3, [pc, #44]	@ (80002d4 <MX_GPIO_Init+0x40>)
 80002a8:	699b      	ldr	r3, [r3, #24]
 80002aa:	f003 0320 	and.w	r3, r3, #32
 80002ae:	607b      	str	r3, [r7, #4]
 80002b0:	687b      	ldr	r3, [r7, #4]
  __HAL_RCC_GPIOA_CLK_ENABLE();
 80002b2:	4b08      	ldr	r3, [pc, #32]	@ (80002d4 <MX_GPIO_Init+0x40>)
 80002b4:	699b      	ldr	r3, [r3, #24]
 80002b6:	4a07      	ldr	r2, [pc, #28]	@ (80002d4 <MX_GPIO_Init+0x40>)
 80002b8:	f043 0304 	orr.w	r3, r3, #4
 80002bc:	6193      	str	r3, [r2, #24]
 80002be:	4b05      	ldr	r3, [pc, #20]	@ (80002d4 <MX_GPIO_Init+0x40>)
 80002c0:	699b      	ldr	r3, [r3, #24]
 80002c2:	f003 0304 	and.w	r3, r3, #4
 80002c6:	603b      	str	r3, [r7, #0]
 80002c8:	683b      	ldr	r3, [r7, #0]

/* USER CODE BEGIN MX_GPIO_Init_2 */
/* USER CODE END MX_GPIO_Init_2 */
}
 80002ca:	bf00      	nop
 80002cc:	370c      	adds	r7, #12
 80002ce:	46bd      	mov	sp, r7
 80002d0:	bc80      	pop	{r7}
 80002d2:	4770      	bx	lr
 80002d4:	40021000 	.word	0x40021000

080002d8 <Error_Handler>:
/**
  * @brief  This function is executed in case of error occurrence.
  * @retval None
  */
void Error_Handler(void)
{
 80002d8:	b480      	push	{r7}
 80002da:	af00      	add	r7, sp, #0
  \details Disables IRQ interrupts by setting the I-bit in the CPSR.
           Can only be executed in Privileged modes.
 */
__STATIC_FORCEINLINE void __disable_irq(void)
{
  __ASM volatile ("cpsid i" : : : "memory");
 80002dc:	b672      	cpsid	i
}
 80002de:	bf00      	nop
  /* USER CODE BEGIN Error_Handler_Debug */
  /* User can add his own implementation to report the HAL error return state */
  __disable_irq();
  while (1)
 80002e0:	bf00      	nop
 80002e2:	e7fd      	b.n	80002e0 <Error_Handler+0x8>

080002e4 <HAL_MspInit>:
/* USER CODE END 0 */
/**
  * Initializes the Global MSP.
  */
void HAL_MspInit(void)
{
 80002e4:	b480      	push	{r7}
 80002e6:	b085      	sub	sp, #20
 80002e8:	af00      	add	r7, sp, #0

  /* USER CODE BEGIN MspInit 0 */

  /* USER CODE END MspInit 0 */

  __HAL_RCC_AFIO_CLK_ENABLE();
 80002ea:	4b15      	ldr	r3, [pc, #84]	@ (8000340 <HAL_MspInit+0x5c>)
 80002ec:	699b      	ldr	r3, [r3, #24]
 80002ee:	4a14      	ldr	r2, [pc, #80]	@ (8000340 <HAL_MspInit+0x5c>)
 80002f0:	f043 0301 	orr.w	r3, r3, #1
 80002f4:	6193      	str	r3, [r2, #24]
 80002f6:	4b12      	ldr	r3, [pc, #72]	@ (8000340 <HAL_MspInit+0x5c>)
 80002f8:	699b      	ldr	r3, [r3, #24]
 80002fa:	f003 0301 	and.w	r3, r3, #1
 80002fe:	60bb      	str	r3, [r7, #8]
 8000300:	68bb      	ldr	r3, [r7, #8]
  __HAL_RCC_PWR_CLK_ENABLE();
 8000302:	4b0f      	ldr	r3, [pc, #60]	@ (8000340 <HAL_MspInit+0x5c>)
 8000304:	69db      	ldr	r3, [r3, #28]
 8000306:	4a0e      	ldr	r2, [pc, #56]	@ (8000340 <HAL_MspInit+0x5c>)
 8000308:	f043 5380 	orr.w	r3, r3, #268435456	@ 0x10000000
 800030c:	61d3      	str	r3, [r2, #28]
 800030e:	4b0c      	ldr	r3, [pc, #48]	@ (8000340 <HAL_MspInit+0x5c>)
 8000310:	69db      	ldr	r3, [r3, #28]
 8000312:	f003 5380 	and.w	r3, r3, #268435456	@ 0x10000000
 8000316:	607b      	str	r3, [r7, #4]
 8000318:	687b      	ldr	r3, [r7, #4]

  /* System interrupt init*/

  /** DISABLE: JTAG-DP Disabled and SW-DP Disabled
  */
  __HAL_AFIO_REMAP_SWJ_DISABLE();
 800031a:	4b0a      	ldr	r3, [pc, #40]	@ (8000344 <HAL_MspInit+0x60>)
 800031c:	685b      	ldr	r3, [r3, #4]
 800031e:	60fb      	str	r3, [r7, #12]
 8000320:	68fb      	ldr	r3, [r7, #12]
 8000322:	f023 63e0 	bic.w	r3, r3, #117440512	@ 0x7000000
 8000326:	60fb      	str	r3, [r7, #12]
 8000328:	68fb      	ldr	r3, [r7, #12]
 800032a:	f043 6380 	orr.w	r3, r3, #67108864	@ 0x4000000
 800032e:	60fb      	str	r3, [r7, #12]
 8000330:	4a04      	ldr	r2, [pc, #16]	@ (8000344 <HAL_MspInit+0x60>)
 8000332:	68fb      	ldr	r3, [r7, #12]
 8000334:	6053      	str	r3, [r2, #4]

  /* USER CODE BEGIN MspInit 1 */

  /* USER CODE END MspInit 1 */
}
 8000336:	bf00      	nop
 8000338:	3714      	adds	r7, #20
 800033a:	46bd      	mov	sp, r7
 800033c:	bc80      	pop	{r7}
 800033e:	4770      	bx	lr
 8000340:	40021000 	.word	0x40021000
 8000344:	40010000 	.word	0x40010000

08000348 <HAL_UART_MspInit>:
* This function configures the hardware resources used in this example
* @param huart: UART handle pointer
* @retval None
*/
void HAL_UART_MspInit(UART_HandleTypeDef* huart)
{
 8000348:	b580      	push	{r7, lr}
 800034a:	b088      	sub	sp, #32
 800034c:	af00      	add	r7, sp, #0
 800034e:	6078      	str	r0, [r7, #4]
  GPIO_InitTypeDef GPIO_InitStruct = {0};
 8000350:	f107 0310 	add.w	r3, r7, #16
 8000354:	2200      	movs	r2, #0
 8000356:	601a      	str	r2, [r3, #0]
 8000358:	605a      	str	r2, [r3, #4]
 800035a:	609a      	str	r2, [r3, #8]
 800035c:	60da      	str	r2, [r3, #12]
  if(huart->Instance==USART1)
 800035e:	687b      	ldr	r3, [r7, #4]
 8000360:	681b      	ldr	r3, [r3, #0]
 8000362:	4a1c      	ldr	r2, [pc, #112]	@ (80003d4 <HAL_UART_MspInit+0x8c>)
 8000364:	4293      	cmp	r3, r2
 8000366:	d131      	bne.n	80003cc <HAL_UART_MspInit+0x84>
  {
  /* USER CODE BEGIN USART1_MspInit 0 */

  /* USER CODE END USART1_MspInit 0 */
    /* Peripheral clock enable */
    __HAL_RCC_USART1_CLK_ENABLE();
 8000368:	4b1b      	ldr	r3, [pc, #108]	@ (80003d8 <HAL_UART_MspInit+0x90>)
 800036a:	699b      	ldr	r3, [r3, #24]
 800036c:	4a1a      	ldr	r2, [pc, #104]	@ (80003d8 <HAL_UART_MspInit+0x90>)
 800036e:	f443 4380 	orr.w	r3, r3, #16384	@ 0x4000
 8000372:	6193      	str	r3, [r2, #24]
 8000374:	4b18      	ldr	r3, [pc, #96]	@ (80003d8 <HAL_UART_MspInit+0x90>)
 8000376:	699b      	ldr	r3, [r3, #24]
 8000378:	f403 4380 	and.w	r3, r3, #16384	@ 0x4000
 800037c:	60fb      	str	r3, [r7, #12]
 800037e:	68fb      	ldr	r3, [r7, #12]

    __HAL_RCC_GPIOA_CLK_ENABLE();
 8000380:	4b15      	ldr	r3, [pc, #84]	@ (80003d8 <HAL_UART_MspInit+0x90>)
 8000382:	699b      	ldr	r3, [r3, #24]
 8000384:	4a14      	ldr	r2, [pc, #80]	@ (80003d8 <HAL_UART_MspInit+0x90>)
 8000386:	f043 0304 	orr.w	r3, r3, #4
 800038a:	6193      	str	r3, [r2, #24]
 800038c:	4b12      	ldr	r3, [pc, #72]	@ (80003d8 <HAL_UART_MspInit+0x90>)
 800038e:	699b      	ldr	r3, [r3, #24]
 8000390:	f003 0304 	and.w	r3, r3, #4
 8000394:	60bb      	str	r3, [r7, #8]
 8000396:	68bb      	ldr	r3, [r7, #8]
    /**USART1 GPIO Configuration
    PA9     ------> USART1_TX
    PA10     ------> USART1_RX
    */
    GPIO_InitStruct.Pin = GPIO_PIN_9;
 8000398:	f44f 7300 	mov.w	r3, #512	@ 0x200
 800039c:	613b      	str	r3, [r7, #16]
    GPIO_InitStruct.Mode = GPIO_MODE_AF_PP;
 800039e:	2302      	movs	r3, #2
 80003a0:	617b      	str	r3, [r7, #20]
    GPIO_InitStruct.Speed = GPIO_SPEED_FREQ_HIGH;
 80003a2:	2303      	movs	r3, #3
 80003a4:	61fb      	str	r3, [r7, #28]
    HAL_GPIO_Init(GPIOA, &GPIO_InitStruct);
 80003a6:	f107 0310 	add.w	r3, r7, #16
 80003aa:	4619      	mov	r1, r3
 80003ac:	480b      	ldr	r0, [pc, #44]	@ (80003dc <HAL_UART_MspInit+0x94>)
 80003ae:	f000 fa0f 	bl	80007d0 <HAL_GPIO_Init>

    GPIO_InitStruct.Pin = GPIO_PIN_10;
 80003b2:	f44f 6380 	mov.w	r3, #1024	@ 0x400
 80003b6:	613b      	str	r3, [r7, #16]
    GPIO_InitStruct.Mode = GPIO_MODE_INPUT;
 80003b8:	2300      	movs	r3, #0
 80003ba:	617b      	str	r3, [r7, #20]
    GPIO_InitStruct.Pull = GPIO_NOPULL;
 80003bc:	2300      	movs	r3, #0
 80003be:	61bb      	str	r3, [r7, #24]
    HAL_GPIO_Init(GPIOA, &GPIO_InitStruct);
 80003c0:	f107 0310 	add.w	r3, r7, #16
 80003c4:	4619      	mov	r1, r3
 80003c6:	4805      	ldr	r0, [pc, #20]	@ (80003dc <HAL_UART_MspInit+0x94>)
 80003c8:	f000 fa02 	bl	80007d0 <HAL_GPIO_Init>

  /* USER CODE END USART1_MspInit 1 */

  }

}
 80003cc:	bf00      	nop
 80003ce:	3720      	adds	r7, #32
 80003d0:	46bd      	mov	sp, r7
 80003d2:	bd80      	pop	{r7, pc}
 80003d4:	40013800 	.word	0x40013800
 80003d8:	40021000 	.word	0x40021000
 80003dc:	40010800 	.word	0x40010800

080003e0 <NMI_Handler>:
/******************************************************************************/
/**
  * @brief This function handles Non maskable interrupt.
  */
void NMI_Handler(void)
{
 80003e0:	b480      	push	{r7}
 80003e2:	af00      	add	r7, sp, #0
  /* USER CODE BEGIN NonMaskableInt_IRQn 0 */

  /* USER CODE END NonMaskableInt_IRQn 0 */
  /* USER CODE BEGIN NonMaskableInt_IRQn 1 */
   while (1)
 80003e4:	bf00      	nop
 80003e6:	e7fd      	b.n	80003e4 <NMI_Handler+0x4>

080003e8 <HardFault_Handler>:

/**
  * @brief This function handles Hard fault interrupt.
  */
void HardFault_Handler(void)
{
 80003e8:	b480      	push	{r7}
 80003ea:	af00      	add	r7, sp, #0
  /* USER CODE BEGIN HardFault_IRQn 0 */

  /* USER CODE END HardFault_IRQn 0 */
  while (1)
 80003ec:	bf00      	nop
 80003ee:	e7fd      	b.n	80003ec <HardFault_Handler+0x4>

080003f0 <MemManage_Handler>:

/**
  * @brief This function handles Memory management fault.
  */
void MemManage_Handler(void)
{
 80003f0:	b480      	push	{r7}
 80003f2:	af00      	add	r7, sp, #0
  /* USER CODE BEGIN MemoryManagement_IRQn 0 */

  /* USER CODE END MemoryManagement_IRQn 0 */
  while (1)
 80003f4:	bf00      	nop
 80003f6:	e7fd      	b.n	80003f4 <MemManage_Handler+0x4>

080003f8 <BusFault_Handler>:

/**
  * @brief This function handles Prefetch fault, memory access fault.
  */
void BusFault_Handler(void)
{
 80003f8:	b480      	push	{r7}
 80003fa:	af00      	add	r7, sp, #0
  /* USER CODE BEGIN BusFault_IRQn 0 */

  /* USER CODE END BusFault_IRQn 0 */
  while (1)
 80003fc:	bf00      	nop
 80003fe:	e7fd      	b.n	80003fc <BusFault_Handler+0x4>

08000400 <UsageFault_Handler>:

/**
  * @brief This function handles Undefined instruction or illegal state.
  */
void UsageFault_Handler(void)
{
 8000400:	b480      	push	{r7}
 8000402:	af00      	add	r7, sp, #0
  /* USER CODE BEGIN UsageFault_IRQn 0 */

  /* USER CODE END UsageFault_IRQn 0 */
  while (1)
 8000404:	bf00      	nop
 8000406:	e7fd      	b.n	8000404 <UsageFault_Handler+0x4>

08000408 <SVC_Handler>:

/**
  * @brief This function handles System service call via SWI instruction.
  */
void SVC_Handler(void)
{
 8000408:	b480      	push	{r7}
 800040a:	af00      	add	r7, sp, #0

  /* USER CODE END SVCall_IRQn 0 */
  /* USER CODE BEGIN SVCall_IRQn 1 */

  /* USER CODE END SVCall_IRQn 1 */
}
 800040c:	bf00      	nop
 800040e:	46bd      	mov	sp, r7
 8000410:	bc80      	pop	{r7}
 8000412:	4770      	bx	lr

08000414 <DebugMon_Handler>:

/**
  * @brief This function handles Debug monitor.
  */
void DebugMon_Handler(void)
{
 8000414:	b480      	push	{r7}
 8000416:	af00      	add	r7, sp, #0

  /* USER CODE END DebugMonitor_IRQn 0 */
  /* USER CODE BEGIN DebugMonitor_IRQn 1 */

  /* USER CODE END DebugMonitor_IRQn 1 */
}
 8000418:	bf00      	nop
 800041a:	46bd      	mov	sp, r7
 800041c:	bc80      	pop	{r7}
 800041e:	4770      	bx	lr

08000420 <PendSV_Handler>:

/**
  * @brief This function handles Pendable request for system service.
  */
void PendSV_Handler(void)
{
 8000420:	b480      	push	{r7}
 8000422:	af00      	add	r7, sp, #0

  /* USER CODE END PendSV_IRQn 0 */
  /* USER CODE BEGIN PendSV_IRQn 1 */

  /* USER CODE END PendSV_IRQn 1 */
}
 8000424:	bf00      	nop
 8000426:	46bd      	mov	sp, r7
 8000428:	bc80      	pop	{r7}
 800042a:	4770      	bx	lr

0800042c <SysTick_Handler>:

/**
  * @brief This function handles System tick timer.
  */
void SysTick_Handler(void)
{
 800042c:	b580      	push	{r7, lr}
 800042e:	af00      	add	r7, sp, #0
  /* USER CODE BEGIN SysTick_IRQn 0 */

  /* USER CODE END SysTick_IRQn 0 */
  HAL_IncTick();
 8000430:	f000 f8aa 	bl	8000588 <HAL_IncTick>
  /* USER CODE BEGIN SysTick_IRQn 1 */

  /* USER CODE END SysTick_IRQn 1 */
}
 8000434:	bf00      	nop
 8000436:	bd80      	pop	{r7, pc}

08000438 <_sbrk>:
 *
 * @param incr Memory size
 * @return Pointer to allocated memory
 */
void *_sbrk(ptrdiff_t incr)
{
 8000438:	b580      	push	{r7, lr}
 800043a:	b086      	sub	sp, #24
 800043c:	af00      	add	r7, sp, #0
 800043e:	6078      	str	r0, [r7, #4]
  extern uint8_t _end; /* Symbol defined in the linker script */
  extern uint8_t _estack; /* Symbol defined in the linker script */
  extern uint32_t _Min_Stack_Size; /* Symbol defined in the linker script */
  const uint32_t stack_limit = (uint32_t)&_estack - (uint32_t)&_Min_Stack_Size;
 8000440:	4a14      	ldr	r2, [pc, #80]	@ (8000494 <_sbrk+0x5c>)
 8000442:	4b15      	ldr	r3, [pc, #84]	@ (8000498 <_sbrk+0x60>)
 8000444:	1ad3      	subs	r3, r2, r3
 8000446:	617b      	str	r3, [r7, #20]
  const uint8_t *max_heap = (uint8_t *)stack_limit;
 8000448:	697b      	ldr	r3, [r7, #20]
 800044a:	613b      	str	r3, [r7, #16]
  uint8_t *prev_heap_end;

  /* Initialize heap end at first call */
  if (NULL == __sbrk_heap_end)
 800044c:	4b13      	ldr	r3, [pc, #76]	@ (800049c <_sbrk+0x64>)
 800044e:	681b      	ldr	r3, [r3, #0]
 8000450:	2b00      	cmp	r3, #0
 8000452:	d102      	bne.n	800045a <_sbrk+0x22>
  {
    __sbrk_heap_end = &_end;
 8000454:	4b11      	ldr	r3, [pc, #68]	@ (800049c <_sbrk+0x64>)
 8000456:	4a12      	ldr	r2, [pc, #72]	@ (80004a0 <_sbrk+0x68>)
 8000458:	601a      	str	r2, [r3, #0]
  }

  /* Protect heap from growing into the reserved MSP stack */
  if (__sbrk_heap_end + incr > max_heap)
 800045a:	4b10      	ldr	r3, [pc, #64]	@ (800049c <_sbrk+0x64>)
 800045c:	681a      	ldr	r2, [r3, #0]
 800045e:	687b      	ldr	r3, [r7, #4]
 8000460:	4413      	add	r3, r2
 8000462:	693a      	ldr	r2, [r7, #16]
 8000464:	429a      	cmp	r2, r3
 8000466:	d207      	bcs.n	8000478 <_sbrk+0x40>
  {
    errno = ENOMEM;
 8000468:	f001 f992 	bl	8001790 <__errno>
 800046c:	4603      	mov	r3, r0
 800046e:	220c      	movs	r2, #12
 8000470:	601a      	str	r2, [r3, #0]
    return (void *)-1;
 8000472:	f04f 33ff 	mov.w	r3, #4294967295
 8000476:	e009      	b.n	800048c <_sbrk+0x54>
  }

  prev_heap_end = __sbrk_heap_end;
 8000478:	4b08      	ldr	r3, [pc, #32]	@ (800049c <_sbrk+0x64>)
 800047a:	681b      	ldr	r3, [r3, #0]
 800047c:	60fb      	str	r3, [r7, #12]
  __sbrk_heap_end += incr;
 800047e:	4b07      	ldr	r3, [pc, #28]	@ (800049c <_sbrk+0x64>)
 8000480:	681a      	ldr	r2, [r3, #0]
 8000482:	687b      	ldr	r3, [r7, #4]
 8000484:	4413      	add	r3, r2
 8000486:	4a05      	ldr	r2, [pc, #20]	@ (800049c <_sbrk+0x64>)
 8000488:	6013      	str	r3, [r2, #0]

  return (void *)prev_heap_end;
 800048a:	68fb      	ldr	r3, [r7, #12]
}
 800048c:	4618      	mov	r0, r3
 800048e:	3718      	adds	r7, #24
 8000490:	46bd      	mov	sp, r7
 8000492:	bd80      	pop	{r7, pc}
 8000494:	20005000 	.word	0x20005000
 8000498:	00000400 	.word	0x00000400
 800049c:	200000c0 	.word	0x200000c0
 80004a0:	20000210 	.word	0x20000210

080004a4 <SystemInit>:
  * @note   This function should be used only after reset.
  * @param  None
  * @retval None
  */
void SystemInit (void)
{
 80004a4:	b480      	push	{r7}
 80004a6:	af00      	add	r7, sp, #0

  /* Configure the Vector Table location -------------------------------------*/
#if defined(USER_VECT_TAB_ADDRESS)
  SCB->VTOR = VECT_TAB_BASE_ADDRESS | VECT_TAB_OFFSET; /* Vector Table Relocation in Internal SRAM. */
#endif /* USER_VECT_TAB_ADDRESS */
}
 80004a8:	bf00      	nop
 80004aa:	46bd      	mov	sp, r7
 80004ac:	bc80      	pop	{r7}
 80004ae:	4770      	bx	lr

080004b0 <Reset_Handler>:
  .weak Reset_Handler
  .type Reset_Handler, %function
Reset_Handler:

/* Call the clock system initialization function.*/
    bl  SystemInit
 80004b0:	f7ff fff8 	bl	80004a4 <SystemInit>

/* Copy the data segment initializers from flash to SRAM */
  ldr r0, =_sdata
 80004b4:	480b      	ldr	r0, [pc, #44]	@ (80004e4 <LoopFillZerobss+0xe>)
  ldr r1, =_edata
 80004b6:	490c      	ldr	r1, [pc, #48]	@ (80004e8 <LoopFillZerobss+0x12>)
  ldr r2, =_sidata
 80004b8:	4a0c      	ldr	r2, [pc, #48]	@ (80004ec <LoopFillZerobss+0x16>)
  movs r3, #0
 80004ba:	2300      	movs	r3, #0
  b LoopCopyDataInit
 80004bc:	e002      	b.n	80004c4 <LoopCopyDataInit>

080004be <CopyDataInit>:

CopyDataInit:
  ldr r4, [r2, r3]
 80004be:	58d4      	ldr	r4, [r2, r3]
  str r4, [r0, r3]
 80004c0:	50c4      	str	r4, [r0, r3]
  adds r3, r3, #4
 80004c2:	3304      	adds	r3, #4

080004c4 <LoopCopyDataInit>:

LoopCopyDataInit:
  adds r4, r0, r3
 80004c4:	18c4      	adds	r4, r0, r3
  cmp r4, r1
 80004c6:	428c      	cmp	r4, r1
  bcc CopyDataInit
 80004c8:	d3f9      	bcc.n	80004be <CopyDataInit>
  
/* Zero fill the bss segment. */
  ldr r2, =_sbss
 80004ca:	4a09      	ldr	r2, [pc, #36]	@ (80004f0 <LoopFillZerobss+0x1a>)
  ldr r4, =_ebss
 80004cc:	4c09      	ldr	r4, [pc, #36]	@ (80004f4 <LoopFillZerobss+0x1e>)
  movs r3, #0
 80004ce:	2300      	movs	r3, #0
  b LoopFillZerobss
 80004d0:	e001      	b.n	80004d6 <LoopFillZerobss>

080004d2 <FillZerobss>:

FillZerobss:
  str  r3, [r2]
 80004d2:	6013      	str	r3, [r2, #0]
  adds r2, r2, #4
 80004d4:	3204      	adds	r2, #4

080004d6 <LoopFillZerobss>:

LoopFillZerobss:
  cmp r2, r4
 80004d6:	42a2      	cmp	r2, r4
  bcc FillZerobss
 80004d8:	d3fb      	bcc.n	80004d2 <FillZerobss>

/* Call static constructors */
    bl __libc_init_array
 80004da:	f001 f95f 	bl	800179c <__libc_init_array>
/* Call the application's entry point.*/
  bl main
 80004de:	f7ff fe35 	bl	800014c <main>
  bx lr
 80004e2:	4770      	bx	lr
  ldr r0, =_sdata
 80004e4:	20000000 	.word	0x20000000
  ldr r1, =_edata
 80004e8:	2000005c 	.word	0x2000005c
  ldr r2, =_sidata
 80004ec:	08002140 	.word	0x08002140
  ldr r2, =_sbss
 80004f0:	2000005c 	.word	0x2000005c
  ldr r4, =_ebss
 80004f4:	20000210 	.word	0x20000210

080004f8 <ADC1_2_IRQHandler>:
 * @retval : None
*/
    .section .text.Default_Handler,"ax",%progbits
Default_Handler:
Infinite_Loop:
  b Infinite_Loop
 80004f8:	e7fe      	b.n	80004f8 <ADC1_2_IRQHandler>
	...

080004fc <HAL_Init>:
  *         need to ensure that the SysTick time base is always set to 1 millisecond
  *         to have correct HAL operation.
  * @retval HAL status
  */
HAL_StatusTypeDef HAL_Init(void)
{
 80004fc:	b580      	push	{r7, lr}
 80004fe:	af00      	add	r7, sp, #0
    defined(STM32F102x6) || defined(STM32F102xB) || \
    defined(STM32F103x6) || defined(STM32F103xB) || defined(STM32F103xE) || defined(STM32F103xG) || \
    defined(STM32F105xC) || defined(STM32F107xC)

  /* Prefetch buffer is not available on value line devices */
  __HAL_FLASH_PREFETCH_BUFFER_ENABLE();
 8000500:	4b08      	ldr	r3, [pc, #32]	@ (8000524 <HAL_Init+0x28>)
 8000502:	681b      	ldr	r3, [r3, #0]
 8000504:	4a07      	ldr	r2, [pc, #28]	@ (8000524 <HAL_Init+0x28>)
 8000506:	f043 0310 	orr.w	r3, r3, #16
 800050a:	6013      	str	r3, [r2, #0]
#endif
#endif /* PREFETCH_ENABLE */

  /* Set Interrupt Group Priority */
  HAL_NVIC_SetPriorityGrouping(NVIC_PRIORITYGROUP_4);
 800050c:	2003      	movs	r0, #3
 800050e:	f000 f92b 	bl	8000768 <HAL_NVIC_SetPriorityGrouping>

  /* Use systick as time base source and configure 1ms tick (default clock after Reset is HSI) */
  HAL_InitTick(TICK_INT_PRIORITY);
 8000512:	200f      	movs	r0, #15
 8000514:	f000 f808 	bl	8000528 <HAL_InitTick>

  /* Init the low level hardware */
  HAL_MspInit();
 8000518:	f7ff fee4 	bl	80002e4 <HAL_MspInit>

  /* Return function status */
  return HAL_OK;
 800051c:	2300      	movs	r3, #0
}
 800051e:	4618      	mov	r0, r3
 8000520:	bd80      	pop	{r7, pc}
 8000522:	bf00      	nop
 8000524:	40022000 	.word	0x40022000

08000528 <HAL_InitTick>:
  *       implementation  in user file.
  * @param TickPriority Tick interrupt priority.
  * @retval HAL status
  */
__weak HAL_StatusTypeDef HAL_InitTick(uint32_t TickPriority)
{
 8000528:	b580      	push	{r7, lr}
 800052a:	b082      	sub	sp, #8
 800052c:	af00      	add	r7, sp, #0
 800052e:	6078      	str	r0, [r7, #4]
  /* Configure the SysTick to have interrupt in 1ms time basis*/
  if (HAL_SYSTICK_Config(SystemCoreClock / (1000U / uwTickFreq)) > 0U)
 8000530:	4b12      	ldr	r3, [pc, #72]	@ (800057c <HAL_InitTick+0x54>)
 8000532:	681a      	ldr	r2, [r3, #0]
 8000534:	4b12      	ldr	r3, [pc, #72]	@ (8000580 <HAL_InitTick+0x58>)
 8000536:	781b      	ldrb	r3, [r3, #0]
 8000538:	4619      	mov	r1, r3
 800053a:	f44f 737a 	mov.w	r3, #1000	@ 0x3e8
 800053e:	fbb3 f3f1 	udiv	r3, r3, r1
 8000542:	fbb2 f3f3 	udiv	r3, r2, r3
 8000546:	4618      	mov	r0, r3
 8000548:	f000 f935 	bl	80007b6 <HAL_SYSTICK_Config>
 800054c:	4603      	mov	r3, r0
 800054e:	2b00      	cmp	r3, #0
 8000550:	d001      	beq.n	8000556 <HAL_InitTick+0x2e>
  {
    return HAL_ERROR;
 8000552:	2301      	movs	r3, #1
 8000554:	e00e      	b.n	8000574 <HAL_InitTick+0x4c>
  }

  /* Configure the SysTick IRQ priority */
  if (TickPriority < (1UL << __NVIC_PRIO_BITS))
 8000556:	687b      	ldr	r3, [r7, #4]
 8000558:	2b0f      	cmp	r3, #15
 800055a:	d80a      	bhi.n	8000572 <HAL_InitTick+0x4a>
  {
    HAL_NVIC_SetPriority(SysTick_IRQn, TickPriority, 0U);
 800055c:	2200      	movs	r2, #0
 800055e:	6879      	ldr	r1, [r7, #4]
 8000560:	f04f 30ff 	mov.w	r0, #4294967295
 8000564:	f000 f90b 	bl	800077e <HAL_NVIC_SetPriority>
    uwTickPrio = TickPriority;
 8000568:	4a06      	ldr	r2, [pc, #24]	@ (8000584 <HAL_InitTick+0x5c>)
 800056a:	687b      	ldr	r3, [r7, #4]
 800056c:	6013      	str	r3, [r2, #0]
  {
    return HAL_ERROR;
  }

  /* Return function status */
  return HAL_OK;
 800056e:	2300      	movs	r3, #0
 8000570:	e000      	b.n	8000574 <HAL_InitTick+0x4c>
    return HAL_ERROR;
 8000572:	2301      	movs	r3, #1
}
 8000574:	4618      	mov	r0, r3
 8000576:	3708      	adds	r7, #8
 8000578:	46bd      	mov	sp, r7
 800057a:	bd80      	pop	{r7, pc}
 800057c:	20000000 	.word	0x20000000
 8000580:	20000008 	.word	0x20000008
 8000584:	20000004 	.word	0x20000004

08000588 <HAL_IncTick>:
  * @note This function is declared as __weak to be overwritten in case of other
  *      implementations in user file.
  * @retval None
  */
__weak void HAL_IncTick(void)
{
 8000588:	b480      	push	{r7}
 800058a:	af00      	add	r7, sp, #0
  uwTick += uwTickFreq;
 800058c:	4b05      	ldr	r3, [pc, #20]	@ (80005a4 <HAL_IncTick+0x1c>)
 800058e:	781b      	ldrb	r3, [r3, #0]
 8000590:	461a      	mov	r2, r3
 8000592:	4b05      	ldr	r3, [pc, #20]	@ (80005a8 <HAL_IncTick+0x20>)
 8000594:	681b      	ldr	r3, [r3, #0]
 8000596:	4413      	add	r3, r2
 8000598:	4a03      	ldr	r2, [pc, #12]	@ (80005a8 <HAL_IncTick+0x20>)
 800059a:	6013      	str	r3, [r2, #0]
}
 800059c:	bf00      	nop
 800059e:	46bd      	mov	sp, r7
 80005a0:	bc80      	pop	{r7}
 80005a2:	4770      	bx	lr
 80005a4:	20000008 	.word	0x20000008
 80005a8:	200000c4 	.word	0x200000c4

080005ac <HAL_GetTick>:
  * @note  This function is declared as __weak to be overwritten in case of other
  *       implementations in user file.
  * @retval tick value
  */
__weak uint32_t HAL_GetTick(void)
{
 80005ac:	b480      	push	{r7}
 80005ae:	af00      	add	r7, sp, #0
  return uwTick;
 80005b0:	4b02      	ldr	r3, [pc, #8]	@ (80005bc <HAL_GetTick+0x10>)
 80005b2:	681b      	ldr	r3, [r3, #0]
}
 80005b4:	4618      	mov	r0, r3
 80005b6:	46bd      	mov	sp, r7
 80005b8:	bc80      	pop	{r7}
 80005ba:	4770      	bx	lr
 80005bc:	200000c4 	.word	0x200000c4

080005c0 <HAL_Delay>:
  *       implementations in user file.
  * @param Delay specifies the delay time length, in milliseconds.
  * @retval None
  */
__weak void HAL_Delay(uint32_t Delay)
{
 80005c0:	b580      	push	{r7, lr}
 80005c2:	b084      	sub	sp, #16
 80005c4:	af00      	add	r7, sp, #0
 80005c6:	6078      	str	r0, [r7, #4]
  uint32_t tickstart = HAL_GetTick();
 80005c8:	f7ff fff0 	bl	80005ac <HAL_GetTick>
 80005cc:	60b8      	str	r0, [r7, #8]
  uint32_t wait = Delay;
 80005ce:	687b      	ldr	r3, [r7, #4]
 80005d0:	60fb      	str	r3, [r7, #12]

  /* Add a freq to guarantee minimum wait */
  if (wait < HAL_MAX_DELAY)
 80005d2:	68fb      	ldr	r3, [r7, #12]
 80005d4:	f1b3 3fff 	cmp.w	r3, #4294967295
 80005d8:	d005      	beq.n	80005e6 <HAL_Delay+0x26>
  {
    wait += (uint32_t)(uwTickFreq);
 80005da:	4b0a      	ldr	r3, [pc, #40]	@ (8000604 <HAL_Delay+0x44>)
 80005dc:	781b      	ldrb	r3, [r3, #0]
 80005de:	461a      	mov	r2, r3
 80005e0:	68fb      	ldr	r3, [r7, #12]
 80005e2:	4413      	add	r3, r2
 80005e4:	60fb      	str	r3, [r7, #12]
  }

  while ((HAL_GetTick() - tickstart) < wait)
 80005e6:	bf00      	nop
 80005e8:	f7ff ffe0 	bl	80005ac <HAL_GetTick>
 80005ec:	4602      	mov	r2, r0
 80005ee:	68bb      	ldr	r3, [r7, #8]
 80005f0:	1ad3      	subs	r3, r2, r3
 80005f2:	68fa      	ldr	r2, [r7, #12]
 80005f4:	429a      	cmp	r2, r3
 80005f6:	d8f7      	bhi.n	80005e8 <HAL_Delay+0x28>
  {
  }
}
 80005f8:	bf00      	nop
 80005fa:	bf00      	nop
 80005fc:	3710      	adds	r7, #16
 80005fe:	46bd      	mov	sp, r7
 8000600:	bd80      	pop	{r7, pc}
 8000602:	bf00      	nop
 8000604:	20000008 	.word	0x20000008

08000608 <__NVIC_SetPriorityGrouping>:
           In case of a conflict between priority grouping and available
           priority bits (__NVIC_PRIO_BITS), the smallest possible priority group is set.
  \param [in]      PriorityGroup  Priority grouping field.
 */
__STATIC_INLINE void __NVIC_SetPriorityGrouping(uint32_t PriorityGroup)
{
 8000608:	b480      	push	{r7}
 800060a:	b085      	sub	sp, #20
 800060c:	af00      	add	r7, sp, #0
 800060e:	6078      	str	r0, [r7, #4]
  uint32_t reg_value;
  uint32_t PriorityGroupTmp = (PriorityGroup & (uint32_t)0x07UL);             /* only values 0..7 are used          */
 8000610:	687b      	ldr	r3, [r7, #4]
 8000612:	f003 0307 	and.w	r3, r3, #7
 8000616:	60fb      	str	r3, [r7, #12]

  reg_value  =  SCB->AIRCR;                                                   /* read old register configuration    */
 8000618:	4b0c      	ldr	r3, [pc, #48]	@ (800064c <__NVIC_SetPriorityGrouping+0x44>)
 800061a:	68db      	ldr	r3, [r3, #12]
 800061c:	60bb      	str	r3, [r7, #8]
  reg_value &= ~((uint32_t)(SCB_AIRCR_VECTKEY_Msk | SCB_AIRCR_PRIGROUP_Msk)); /* clear bits to change               */
 800061e:	68ba      	ldr	r2, [r7, #8]
 8000620:	f64f 03ff 	movw	r3, #63743	@ 0xf8ff
 8000624:	4013      	ands	r3, r2
 8000626:	60bb      	str	r3, [r7, #8]
  reg_value  =  (reg_value                                   |
                ((uint32_t)0x5FAUL << SCB_AIRCR_VECTKEY_Pos) |
                (PriorityGroupTmp << SCB_AIRCR_PRIGROUP_Pos) );               /* Insert write key and priority group */
 8000628:	68fb      	ldr	r3, [r7, #12]
 800062a:	021a      	lsls	r2, r3, #8
                ((uint32_t)0x5FAUL << SCB_AIRCR_VECTKEY_Pos) |
 800062c:	68bb      	ldr	r3, [r7, #8]
 800062e:	4313      	orrs	r3, r2
  reg_value  =  (reg_value                                   |
 8000630:	f043 63bf 	orr.w	r3, r3, #100139008	@ 0x5f80000
 8000634:	f443 3300 	orr.w	r3, r3, #131072	@ 0x20000
 8000638:	60bb      	str	r3, [r7, #8]
  SCB->AIRCR =  reg_value;
 800063a:	4a04      	ldr	r2, [pc, #16]	@ (800064c <__NVIC_SetPriorityGrouping+0x44>)
 800063c:	68bb      	ldr	r3, [r7, #8]
 800063e:	60d3      	str	r3, [r2, #12]
}
 8000640:	bf00      	nop
 8000642:	3714      	adds	r7, #20
 8000644:	46bd      	mov	sp, r7
 8000646:	bc80      	pop	{r7}
 8000648:	4770      	bx	lr
 800064a:	bf00      	nop
 800064c:	e000ed00 	.word	0xe000ed00

08000650 <__NVIC_GetPriorityGrouping>:
  \brief   Get Priority Grouping
  \details Reads the priority grouping field from the NVIC Interrupt Controller.
  \return                Priority grouping field (SCB->AIRCR [10:8] PRIGROUP field).
 */
__STATIC_INLINE uint32_t __NVIC_GetPriorityGrouping(void)
{
 8000650:	b480      	push	{r7}
 8000652:	af00      	add	r7, sp, #0
  return ((uint32_t)((SCB->AIRCR & SCB_AIRCR_PRIGROUP_Msk) >> SCB_AIRCR_PRIGROUP_Pos));
 8000654:	4b04      	ldr	r3, [pc, #16]	@ (8000668 <__NVIC_GetPriorityGrouping+0x18>)
 8000656:	68db      	ldr	r3, [r3, #12]
 8000658:	0a1b      	lsrs	r3, r3, #8
 800065a:	f003 0307 	and.w	r3, r3, #7
}
 800065e:	4618      	mov	r0, r3
 8000660:	46bd      	mov	sp, r7
 8000662:	bc80      	pop	{r7}
 8000664:	4770      	bx	lr
 8000666:	bf00      	nop
 8000668:	e000ed00 	.word	0xe000ed00

0800066c <__NVIC_SetPriority>:
  \param [in]      IRQn  Interrupt number.
  \param [in]  priority  Priority to set.
  \note    The priority cannot be set for every processor exception.
 */
__STATIC_INLINE void __NVIC_SetPriority(IRQn_Type IRQn, uint32_t priority)
{
 800066c:	b480      	push	{r7}
 800066e:	b083      	sub	sp, #12
 8000670:	af00      	add	r7, sp, #0
 8000672:	4603      	mov	r3, r0
 8000674:	6039      	str	r1, [r7, #0]
 8000676:	71fb      	strb	r3, [r7, #7]
  if ((int32_t)(IRQn) >= 0)
 8000678:	f997 3007 	ldrsb.w	r3, [r7, #7]
 800067c:	2b00      	cmp	r3, #0
 800067e:	db0a      	blt.n	8000696 <__NVIC_SetPriority+0x2a>
  {
    NVIC->IP[((uint32_t)IRQn)]               = (uint8_t)((priority << (8U - __NVIC_PRIO_BITS)) & (uint32_t)0xFFUL);
 8000680:	683b      	ldr	r3, [r7, #0]
 8000682:	b2da      	uxtb	r2, r3
 8000684:	490c      	ldr	r1, [pc, #48]	@ (80006b8 <__NVIC_SetPriority+0x4c>)
 8000686:	f997 3007 	ldrsb.w	r3, [r7, #7]
 800068a:	0112      	lsls	r2, r2, #4
 800068c:	b2d2      	uxtb	r2, r2
 800068e:	440b      	add	r3, r1
 8000690:	f883 2300 	strb.w	r2, [r3, #768]	@ 0x300
  }
  else
  {
    SCB->SHP[(((uint32_t)IRQn) & 0xFUL)-4UL] = (uint8_t)((priority << (8U - __NVIC_PRIO_BITS)) & (uint32_t)0xFFUL);
  }
}
 8000694:	e00a      	b.n	80006ac <__NVIC_SetPriority+0x40>
    SCB->SHP[(((uint32_t)IRQn) & 0xFUL)-4UL] = (uint8_t)((priority << (8U - __NVIC_PRIO_BITS)) & (uint32_t)0xFFUL);
 8000696:	683b      	ldr	r3, [r7, #0]
 8000698:	b2da      	uxtb	r2, r3
 800069a:	4908      	ldr	r1, [pc, #32]	@ (80006bc <__NVIC_SetPriority+0x50>)
 800069c:	79fb      	ldrb	r3, [r7, #7]
 800069e:	f003 030f 	and.w	r3, r3, #15
 80006a2:	3b04      	subs	r3, #4
 80006a4:	0112      	lsls	r2, r2, #4
 80006a6:	b2d2      	uxtb	r2, r2
 80006a8:	440b      	add	r3, r1
 80006aa:	761a      	strb	r2, [r3, #24]
}
 80006ac:	bf00      	nop
 80006ae:	370c      	adds	r7, #12
 80006b0:	46bd      	mov	sp, r7
 80006b2:	bc80      	pop	{r7}
 80006b4:	4770      	bx	lr
 80006b6:	bf00      	nop
 80006b8:	e000e100 	.word	0xe000e100
 80006bc:	e000ed00 	.word	0xe000ed00

080006c0 <NVIC_EncodePriority>:
  \param [in]   PreemptPriority  Preemptive priority value (starting from 0).
  \param [in]       SubPriority  Subpriority value (starting from 0).
  \return                        Encoded priority. Value can be used in the function \ref NVIC_SetPriority().
 */
__STATIC_INLINE uint32_t NVIC_EncodePriority (uint32_t PriorityGroup, uint32_t PreemptPriority, uint32_t SubPriority)
{
 80006c0:	b480      	push	{r7}
 80006c2:	b089      	sub	sp, #36	@ 0x24
 80006c4:	af00      	add	r7, sp, #0
 80006c6:	60f8      	str	r0, [r7, #12]
 80006c8:	60b9      	str	r1, [r7, #8]
 80006ca:	607a      	str	r2, [r7, #4]
  uint32_t PriorityGroupTmp = (PriorityGroup & (uint32_t)0x07UL);   /* only values 0..7 are used          */
 80006cc:	68fb      	ldr	r3, [r7, #12]
 80006ce:	f003 0307 	and.w	r3, r3, #7
 80006d2:	61fb      	str	r3, [r7, #28]
  uint32_t PreemptPriorityBits;
  uint32_t SubPriorityBits;

  PreemptPriorityBits = ((7UL - PriorityGroupTmp) > (uint32_t)(__NVIC_PRIO_BITS)) ? (uint32_t)(__NVIC_PRIO_BITS) : (uint32_t)(7UL - PriorityGroupTmp);
 80006d4:	69fb      	ldr	r3, [r7, #28]
 80006d6:	f1c3 0307 	rsb	r3, r3, #7
 80006da:	2b04      	cmp	r3, #4
 80006dc:	bf28      	it	cs
 80006de:	2304      	movcs	r3, #4
 80006e0:	61bb      	str	r3, [r7, #24]
  SubPriorityBits     = ((PriorityGroupTmp + (uint32_t)(__NVIC_PRIO_BITS)) < (uint32_t)7UL) ? (uint32_t)0UL : (uint32_t)((PriorityGroupTmp - 7UL) + (uint32_t)(__NVIC_PRIO_BITS));
 80006e2:	69fb      	ldr	r3, [r7, #28]
 80006e4:	3304      	adds	r3, #4
 80006e6:	2b06      	cmp	r3, #6
 80006e8:	d902      	bls.n	80006f0 <NVIC_EncodePriority+0x30>
 80006ea:	69fb      	ldr	r3, [r7, #28]
 80006ec:	3b03      	subs	r3, #3
 80006ee:	e000      	b.n	80006f2 <NVIC_EncodePriority+0x32>
 80006f0:	2300      	movs	r3, #0
 80006f2:	617b      	str	r3, [r7, #20]

  return (
           ((PreemptPriority & (uint32_t)((1UL << (PreemptPriorityBits)) - 1UL)) << SubPriorityBits) |
 80006f4:	f04f 32ff 	mov.w	r2, #4294967295
 80006f8:	69bb      	ldr	r3, [r7, #24]
 80006fa:	fa02 f303 	lsl.w	r3, r2, r3
 80006fe:	43da      	mvns	r2, r3
 8000700:	68bb      	ldr	r3, [r7, #8]
 8000702:	401a      	ands	r2, r3
 8000704:	697b      	ldr	r3, [r7, #20]
 8000706:	409a      	lsls	r2, r3
           ((SubPriority     & (uint32_t)((1UL << (SubPriorityBits    )) - 1UL)))
 8000708:	f04f 31ff 	mov.w	r1, #4294967295
 800070c:	697b      	ldr	r3, [r7, #20]
 800070e:	fa01 f303 	lsl.w	r3, r1, r3
 8000712:	43d9      	mvns	r1, r3
 8000714:	687b      	ldr	r3, [r7, #4]
 8000716:	400b      	ands	r3, r1
           ((PreemptPriority & (uint32_t)((1UL << (PreemptPriorityBits)) - 1UL)) << SubPriorityBits) |
 8000718:	4313      	orrs	r3, r2
         );
}
 800071a:	4618      	mov	r0, r3
 800071c:	3724      	adds	r7, #36	@ 0x24
 800071e:	46bd      	mov	sp, r7
 8000720:	bc80      	pop	{r7}
 8000722:	4770      	bx	lr

08000724 <SysTick_Config>:
  \note    When the variable <b>__Vendor_SysTickConfig</b> is set to 1, then the
           function <b>SysTick_Config</b> is not included. In this case, the file <b><i>device</i>.h</b>
           must contain a vendor-specific implementation of this function.
 */
__STATIC_INLINE uint32_t SysTick_Config(uint32_t ticks)
{
 8000724:	b580      	push	{r7, lr}
 8000726:	b082      	sub	sp, #8
 8000728:	af00      	add	r7, sp, #0
 800072a:	6078      	str	r0, [r7, #4]
  if ((ticks - 1UL) > SysTick_LOAD_RELOAD_Msk)
 800072c:	687b      	ldr	r3, [r7, #4]
 800072e:	3b01      	subs	r3, #1
 8000730:	f1b3 7f80 	cmp.w	r3, #16777216	@ 0x1000000
 8000734:	d301      	bcc.n	800073a <SysTick_Config+0x16>
  {
    return (1UL);                                                   /* Reload value impossible */
 8000736:	2301      	movs	r3, #1
 8000738:	e00f      	b.n	800075a <SysTick_Config+0x36>
  }

  SysTick->LOAD  = (uint32_t)(ticks - 1UL);                         /* set reload register */
 800073a:	4a0a      	ldr	r2, [pc, #40]	@ (8000764 <SysTick_Config+0x40>)
 800073c:	687b      	ldr	r3, [r7, #4]
 800073e:	3b01      	subs	r3, #1
 8000740:	6053      	str	r3, [r2, #4]
  NVIC_SetPriority (SysTick_IRQn, (1UL << __NVIC_PRIO_BITS) - 1UL); /* set Priority for Systick Interrupt */
 8000742:	210f      	movs	r1, #15
 8000744:	f04f 30ff 	mov.w	r0, #4294967295
 8000748:	f7ff ff90 	bl	800066c <__NVIC_SetPriority>
  SysTick->VAL   = 0UL;                                             /* Load the SysTick Counter Value */
 800074c:	4b05      	ldr	r3, [pc, #20]	@ (8000764 <SysTick_Config+0x40>)
 800074e:	2200      	movs	r2, #0
 8000750:	609a      	str	r2, [r3, #8]
  SysTick->CTRL  = SysTick_CTRL_CLKSOURCE_Msk |
 8000752:	4b04      	ldr	r3, [pc, #16]	@ (8000764 <SysTick_Config+0x40>)
 8000754:	2207      	movs	r2, #7
 8000756:	601a      	str	r2, [r3, #0]
                   SysTick_CTRL_TICKINT_Msk   |
                   SysTick_CTRL_ENABLE_Msk;                         /* Enable SysTick IRQ and SysTick Timer */
  return (0UL);                                                     /* Function successful */
 8000758:	2300      	movs	r3, #0
}
 800075a:	4618      	mov	r0, r3
 800075c:	3708      	adds	r7, #8
 800075e:	46bd      	mov	sp, r7
 8000760:	bd80      	pop	{r7, pc}
 8000762:	bf00      	nop
 8000764:	e000e010 	.word	0xe000e010

08000768 <HAL_NVIC_SetPriorityGrouping>:
  * @note   When the NVIC_PriorityGroup_0 is selected, IRQ preemption is no more possible. 
  *         The pending IRQ priority will be managed only by the subpriority. 
  * @retval None
  */
void HAL_NVIC_SetPriorityGrouping(uint32_t PriorityGroup)
{
 8000768:	b580      	push	{r7, lr}
 800076a:	b082      	sub	sp, #8
 800076c:	af00      	add	r7, sp, #0
 800076e:	6078      	str	r0, [r7, #4]
  /* Check the parameters */
  assert_param(IS_NVIC_PRIORITY_GROUP(PriorityGroup));
  
  /* Set the PRIGROUP[10:8] bits according to the PriorityGroup parameter value */
  NVIC_SetPriorityGrouping(PriorityGroup);
 8000770:	6878      	ldr	r0, [r7, #4]
 8000772:	f7ff ff49 	bl	8000608 <__NVIC_SetPriorityGrouping>
}
 8000776:	bf00      	nop
 8000778:	3708      	adds	r7, #8
 800077a:	46bd      	mov	sp, r7
 800077c:	bd80      	pop	{r7, pc}

0800077e <HAL_NVIC_SetPriority>:
  *         This parameter can be a value between 0 and 15
  *         A lower priority value indicates a higher priority.          
  * @retval None
  */
void HAL_NVIC_SetPriority(IRQn_Type IRQn, uint32_t PreemptPriority, uint32_t SubPriority)
{ 
 800077e:	b580      	push	{r7, lr}
 8000780:	b086      	sub	sp, #24
 8000782:	af00      	add	r7, sp, #0
 8000784:	4603      	mov	r3, r0
 8000786:	60b9      	str	r1, [r7, #8]
 8000788:	607a      	str	r2, [r7, #4]
 800078a:	73fb      	strb	r3, [r7, #15]
  uint32_t prioritygroup = 0x00U;
 800078c:	2300      	movs	r3, #0
 800078e:	617b      	str	r3, [r7, #20]
  
  /* Check the parameters */
  assert_param(IS_NVIC_SUB_PRIORITY(SubPriority));
  assert_param(IS_NVIC_PREEMPTION_PRIORITY(PreemptPriority));
  
  prioritygroup = NVIC_GetPriorityGrouping();
 8000790:	f7ff ff5e 	bl	8000650 <__NVIC_GetPriorityGrouping>
 8000794:	6178      	str	r0, [r7, #20]
  
  NVIC_SetPriority(IRQn, NVIC_EncodePriority(prioritygroup, PreemptPriority, SubPriority));
 8000796:	687a      	ldr	r2, [r7, #4]
 8000798:	68b9      	ldr	r1, [r7, #8]
 800079a:	6978      	ldr	r0, [r7, #20]
 800079c:	f7ff ff90 	bl	80006c0 <NVIC_EncodePriority>
 80007a0:	4602      	mov	r2, r0
 80007a2:	f997 300f 	ldrsb.w	r3, [r7, #15]
 80007a6:	4611      	mov	r1, r2
 80007a8:	4618      	mov	r0, r3
 80007aa:	f7ff ff5f 	bl	800066c <__NVIC_SetPriority>
}
 80007ae:	bf00      	nop
 80007b0:	3718      	adds	r7, #24
 80007b2:	46bd      	mov	sp, r7
 80007b4:	bd80      	pop	{r7, pc}

080007b6 <HAL_SYSTICK_Config>:
  * @param  TicksNumb: Specifies the ticks Number of ticks between two interrupts.
  * @retval status:  - 0  Function succeeded.
  *                  - 1  Function failed.
  */
uint32_t HAL_SYSTICK_Config(uint32_t TicksNumb)
{
 80007b6:	b580      	push	{r7, lr}
 80007b8:	b082      	sub	sp, #8
 80007ba:	af00      	add	r7, sp, #0
 80007bc:	6078      	str	r0, [r7, #4]
   return SysTick_Config(TicksNumb);
 80007be:	6878      	ldr	r0, [r7, #4]
 80007c0:	f7ff ffb0 	bl	8000724 <SysTick_Config>
 80007c4:	4603      	mov	r3, r0
}
 80007c6:	4618      	mov	r0, r3
 80007c8:	3708      	adds	r7, #8
 80007ca:	46bd      	mov	sp, r7
 80007cc:	bd80      	pop	{r7, pc}
	...

080007d0 <HAL_GPIO_Init>:
  * @param  GPIO_Init: pointer to a GPIO_InitTypeDef structure that contains
  *         the configuration information for the specified GPIO peripheral.
  * @retval None
  */
void HAL_GPIO_Init(GPIO_TypeDef  *GPIOx, GPIO_InitTypeDef *GPIO_Init)
{
 80007d0:	b480      	push	{r7}
 80007d2:	b08b      	sub	sp, #44	@ 0x2c
 80007d4:	af00      	add	r7, sp, #0
 80007d6:	6078      	str	r0, [r7, #4]
 80007d8:	6039      	str	r1, [r7, #0]
  uint32_t position = 0x00u;
 80007da:	2300      	movs	r3, #0
 80007dc:	627b      	str	r3, [r7, #36]	@ 0x24
  uint32_t ioposition;
  uint32_t iocurrent;
  uint32_t temp;
  uint32_t config = 0x00u;
 80007de:	2300      	movs	r3, #0
 80007e0:	623b      	str	r3, [r7, #32]
  assert_param(IS_GPIO_ALL_INSTANCE(GPIOx));
  assert_param(IS_GPIO_PIN(GPIO_Init->Pin));
  assert_param(IS_GPIO_MODE(GPIO_Init->Mode));

  /* Configure the port pins */
  while (((GPIO_Init->Pin) >> position) != 0x00u)
 80007e2:	e169      	b.n	8000ab8 <HAL_GPIO_Init+0x2e8>
  {
    /* Get the IO position */
    ioposition = (0x01uL << position);
 80007e4:	2201      	movs	r2, #1
 80007e6:	6a7b      	ldr	r3, [r7, #36]	@ 0x24
 80007e8:	fa02 f303 	lsl.w	r3, r2, r3
 80007ec:	61fb      	str	r3, [r7, #28]

    /* Get the current IO position */
    iocurrent = (uint32_t)(GPIO_Init->Pin) & ioposition;
 80007ee:	683b      	ldr	r3, [r7, #0]
 80007f0:	681b      	ldr	r3, [r3, #0]
 80007f2:	69fa      	ldr	r2, [r7, #28]
 80007f4:	4013      	ands	r3, r2
 80007f6:	61bb      	str	r3, [r7, #24]

    if (iocurrent == ioposition)
 80007f8:	69ba      	ldr	r2, [r7, #24]
 80007fa:	69fb      	ldr	r3, [r7, #28]
 80007fc:	429a      	cmp	r2, r3
 80007fe:	f040 8158 	bne.w	8000ab2 <HAL_GPIO_Init+0x2e2>
    {
      /* Check the Alternate function parameters */
      assert_param(IS_GPIO_AF_INSTANCE(GPIOx));

      /* Based on the required mode, filling config variable with MODEy[1:0] and CNFy[3:2] corresponding bits */
      switch (GPIO_Init->Mode)
 8000802:	683b      	ldr	r3, [r7, #0]
 8000804:	685b      	ldr	r3, [r3, #4]
 8000806:	4a9a      	ldr	r2, [pc, #616]	@ (8000a70 <HAL_GPIO_Init+0x2a0>)
 8000808:	4293      	cmp	r3, r2
 800080a:	d05e      	beq.n	80008ca <HAL_GPIO_Init+0xfa>
 800080c:	4a98      	ldr	r2, [pc, #608]	@ (8000a70 <HAL_GPIO_Init+0x2a0>)
 800080e:	4293      	cmp	r3, r2
 8000810:	d875      	bhi.n	80008fe <HAL_GPIO_Init+0x12e>
 8000812:	4a98      	ldr	r2, [pc, #608]	@ (8000a74 <HAL_GPIO_Init+0x2a4>)
 8000814:	4293      	cmp	r3, r2
 8000816:	d058      	beq.n	80008ca <HAL_GPIO_Init+0xfa>
 8000818:	4a96      	ldr	r2, [pc, #600]	@ (8000a74 <HAL_GPIO_Init+0x2a4>)
 800081a:	4293      	cmp	r3, r2
 800081c:	d86f      	bhi.n	80008fe <HAL_GPIO_Init+0x12e>
 800081e:	4a96      	ldr	r2, [pc, #600]	@ (8000a78 <HAL_GPIO_Init+0x2a8>)
 8000820:	4293      	cmp	r3, r2
 8000822:	d052      	beq.n	80008ca <HAL_GPIO_Init+0xfa>
 8000824:	4a94      	ldr	r2, [pc, #592]	@ (8000a78 <HAL_GPIO_Init+0x2a8>)
 8000826:	4293      	cmp	r3, r2
 8000828:	d869      	bhi.n	80008fe <HAL_GPIO_Init+0x12e>
 800082a:	4a94      	ldr	r2, [pc, #592]	@ (8000a7c <HAL_GPIO_Init+0x2ac>)
 800082c:	4293      	cmp	r3, r2
 800082e:	d04c      	beq.n	80008ca <HAL_GPIO_Init+0xfa>
 8000830:	4a92      	ldr	r2, [pc, #584]	@ (8000a7c <HAL_GPIO_Init+0x2ac>)
 8000832:	4293      	cmp	r3, r2
 8000834:	d863      	bhi.n	80008fe <HAL_GPIO_Init+0x12e>
 8000836:	4a92      	ldr	r2, [pc, #584]	@ (8000a80 <HAL_GPIO_Init+0x2b0>)
 8000838:	4293      	cmp	r3, r2
 800083a:	d046      	beq.n	80008ca <HAL_GPIO_Init+0xfa>
 800083c:	4a90      	ldr	r2, [pc, #576]	@ (8000a80 <HAL_GPIO_Init+0x2b0>)
 800083e:	4293      	cmp	r3, r2
 8000840:	d85d      	bhi.n	80008fe <HAL_GPIO_Init+0x12e>
 8000842:	2b12      	cmp	r3, #18
 8000844:	d82a      	bhi.n	800089c <HAL_GPIO_Init+0xcc>
 8000846:	2b12      	cmp	r3, #18
 8000848:	d859      	bhi.n	80008fe <HAL_GPIO_Init+0x12e>
 800084a:	a201      	add	r2, pc, #4	@ (adr r2, 8000850 <HAL_GPIO_Init+0x80>)
 800084c:	f852 f023 	ldr.w	pc, [r2, r3, lsl #2]
 8000850:	080008cb 	.word	0x080008cb
 8000854:	080008a5 	.word	0x080008a5
 8000858:	080008b7 	.word	0x080008b7
 800085c:	080008f9 	.word	0x080008f9
 8000860:	080008ff 	.word	0x080008ff
 8000864:	080008ff 	.word	0x080008ff
 8000868:	080008ff 	.word	0x080008ff
 800086c:	080008ff 	.word	0x080008ff
 8000870:	080008ff 	.word	0x080008ff
 8000874:	080008ff 	.word	0x080008ff
 8000878:	080008ff 	.word	0x080008ff
 800087c:	080008ff 	.word	0x080008ff
 8000880:	080008ff 	.word	0x080008ff
 8000884:	080008ff 	.word	0x080008ff
 8000888:	080008ff 	.word	0x080008ff
 800088c:	080008ff 	.word	0x080008ff
 8000890:	080008ff 	.word	0x080008ff
 8000894:	080008ad 	.word	0x080008ad
 8000898:	080008c1 	.word	0x080008c1
 800089c:	4a79      	ldr	r2, [pc, #484]	@ (8000a84 <HAL_GPIO_Init+0x2b4>)
 800089e:	4293      	cmp	r3, r2
 80008a0:	d013      	beq.n	80008ca <HAL_GPIO_Init+0xfa>
          config = GPIO_CR_MODE_INPUT + GPIO_CR_CNF_ANALOG;
          break;

        /* Parameters are checked with assert_param */
        default:
          break;
 80008a2:	e02c      	b.n	80008fe <HAL_GPIO_Init+0x12e>
          config = GPIO_Init->Speed + GPIO_CR_CNF_GP_OUTPUT_PP;
 80008a4:	683b      	ldr	r3, [r7, #0]
 80008a6:	68db      	ldr	r3, [r3, #12]
 80008a8:	623b      	str	r3, [r7, #32]
          break;
 80008aa:	e029      	b.n	8000900 <HAL_GPIO_Init+0x130>
          config = GPIO_Init->Speed + GPIO_CR_CNF_GP_OUTPUT_OD;
 80008ac:	683b      	ldr	r3, [r7, #0]
 80008ae:	68db      	ldr	r3, [r3, #12]
 80008b0:	3304      	adds	r3, #4
 80008b2:	623b      	str	r3, [r7, #32]
          break;
 80008b4:	e024      	b.n	8000900 <HAL_GPIO_Init+0x130>
          config = GPIO_Init->Speed + GPIO_CR_CNF_AF_OUTPUT_PP;
 80008b6:	683b      	ldr	r3, [r7, #0]
 80008b8:	68db      	ldr	r3, [r3, #12]
 80008ba:	3308      	adds	r3, #8
 80008bc:	623b      	str	r3, [r7, #32]
          break;
 80008be:	e01f      	b.n	8000900 <HAL_GPIO_Init+0x130>
          config = GPIO_Init->Speed + GPIO_CR_CNF_AF_OUTPUT_OD;
 80008c0:	683b      	ldr	r3, [r7, #0]
 80008c2:	68db      	ldr	r3, [r3, #12]
 80008c4:	330c      	adds	r3, #12
 80008c6:	623b      	str	r3, [r7, #32]
          break;
 80008c8:	e01a      	b.n	8000900 <HAL_GPIO_Init+0x130>
          if (GPIO_Init->Pull == GPIO_NOPULL)
 80008ca:	683b      	ldr	r3, [r7, #0]
 80008cc:	689b      	ldr	r3, [r3, #8]
 80008ce:	2b00      	cmp	r3, #0
 80008d0:	d102      	bne.n	80008d8 <HAL_GPIO_Init+0x108>
            config = GPIO_CR_MODE_INPUT + GPIO_CR_CNF_INPUT_FLOATING;
 80008d2:	2304      	movs	r3, #4
 80008d4:	623b      	str	r3, [r7, #32]
          break;
 80008d6:	e013      	b.n	8000900 <HAL_GPIO_Init+0x130>
          else if (GPIO_Init->Pull == GPIO_PULLUP)
 80008d8:	683b      	ldr	r3, [r7, #0]
 80008da:	689b      	ldr	r3, [r3, #8]
 80008dc:	2b01      	cmp	r3, #1
 80008de:	d105      	bne.n	80008ec <HAL_GPIO_Init+0x11c>
            config = GPIO_CR_MODE_INPUT + GPIO_CR_CNF_INPUT_PU_PD;
 80008e0:	2308      	movs	r3, #8
 80008e2:	623b      	str	r3, [r7, #32]
            GPIOx->BSRR = ioposition;
 80008e4:	687b      	ldr	r3, [r7, #4]
 80008e6:	69fa      	ldr	r2, [r7, #28]
 80008e8:	611a      	str	r2, [r3, #16]
          break;
 80008ea:	e009      	b.n	8000900 <HAL_GPIO_Init+0x130>
            config = GPIO_CR_MODE_INPUT + GPIO_CR_CNF_INPUT_PU_PD;
 80008ec:	2308      	movs	r3, #8
 80008ee:	623b      	str	r3, [r7, #32]
            GPIOx->BRR = ioposition;
 80008f0:	687b      	ldr	r3, [r7, #4]
 80008f2:	69fa      	ldr	r2, [r7, #28]
 80008f4:	615a      	str	r2, [r3, #20]
          break;
 80008f6:	e003      	b.n	8000900 <HAL_GPIO_Init+0x130>
          config = GPIO_CR_MODE_INPUT + GPIO_CR_CNF_ANALOG;
 80008f8:	2300      	movs	r3, #0
 80008fa:	623b      	str	r3, [r7, #32]
          break;
 80008fc:	e000      	b.n	8000900 <HAL_GPIO_Init+0x130>
          break;
 80008fe:	bf00      	nop
      }

      /* Check if the current bit belongs to first half or last half of the pin count number
       in order to address CRH or CRL register*/
      configregister = (iocurrent < GPIO_PIN_8) ? &GPIOx->CRL     : &GPIOx->CRH;
 8000900:	69bb      	ldr	r3, [r7, #24]
 8000902:	2bff      	cmp	r3, #255	@ 0xff
 8000904:	d801      	bhi.n	800090a <HAL_GPIO_Init+0x13a>
 8000906:	687b      	ldr	r3, [r7, #4]
 8000908:	e001      	b.n	800090e <HAL_GPIO_Init+0x13e>
 800090a:	687b      	ldr	r3, [r7, #4]
 800090c:	3304      	adds	r3, #4
 800090e:	617b      	str	r3, [r7, #20]
      registeroffset = (iocurrent < GPIO_PIN_8) ? (position << 2u) : ((position - 8u) << 2u);
 8000910:	69bb      	ldr	r3, [r7, #24]
 8000912:	2bff      	cmp	r3, #255	@ 0xff
 8000914:	d802      	bhi.n	800091c <HAL_GPIO_Init+0x14c>
 8000916:	6a7b      	ldr	r3, [r7, #36]	@ 0x24
 8000918:	009b      	lsls	r3, r3, #2
 800091a:	e002      	b.n	8000922 <HAL_GPIO_Init+0x152>
 800091c:	6a7b      	ldr	r3, [r7, #36]	@ 0x24
 800091e:	3b08      	subs	r3, #8
 8000920:	009b      	lsls	r3, r3, #2
 8000922:	613b      	str	r3, [r7, #16]

      /* Apply the new configuration of the pin to the register */
      MODIFY_REG((*configregister), ((GPIO_CRL_MODE0 | GPIO_CRL_CNF0) << registeroffset), (config << registeroffset));
 8000924:	697b      	ldr	r3, [r7, #20]
 8000926:	681a      	ldr	r2, [r3, #0]
 8000928:	210f      	movs	r1, #15
 800092a:	693b      	ldr	r3, [r7, #16]
 800092c:	fa01 f303 	lsl.w	r3, r1, r3
 8000930:	43db      	mvns	r3, r3
 8000932:	401a      	ands	r2, r3
 8000934:	6a39      	ldr	r1, [r7, #32]
 8000936:	693b      	ldr	r3, [r7, #16]
 8000938:	fa01 f303 	lsl.w	r3, r1, r3
 800093c:	431a      	orrs	r2, r3
 800093e:	697b      	ldr	r3, [r7, #20]
 8000940:	601a      	str	r2, [r3, #0]

      /*--------------------- EXTI Mode Configuration ------------------------*/
      /* Configure the External Interrupt or event for the current IO */
      if ((GPIO_Init->Mode & EXTI_MODE) == EXTI_MODE)
 8000942:	683b      	ldr	r3, [r7, #0]
 8000944:	685b      	ldr	r3, [r3, #4]
 8000946:	f003 5380 	and.w	r3, r3, #268435456	@ 0x10000000
 800094a:	2b00      	cmp	r3, #0
 800094c:	f000 80b1 	beq.w	8000ab2 <HAL_GPIO_Init+0x2e2>
      {
        /* Enable AFIO Clock */
        __HAL_RCC_AFIO_CLK_ENABLE();
 8000950:	4b4d      	ldr	r3, [pc, #308]	@ (8000a88 <HAL_GPIO_Init+0x2b8>)
 8000952:	699b      	ldr	r3, [r3, #24]
 8000954:	4a4c      	ldr	r2, [pc, #304]	@ (8000a88 <HAL_GPIO_Init+0x2b8>)
 8000956:	f043 0301 	orr.w	r3, r3, #1
 800095a:	6193      	str	r3, [r2, #24]
 800095c:	4b4a      	ldr	r3, [pc, #296]	@ (8000a88 <HAL_GPIO_Init+0x2b8>)
 800095e:	699b      	ldr	r3, [r3, #24]
 8000960:	f003 0301 	and.w	r3, r3, #1
 8000964:	60bb      	str	r3, [r7, #8]
 8000966:	68bb      	ldr	r3, [r7, #8]
        temp = AFIO->EXTICR[position >> 2u];
 8000968:	4a48      	ldr	r2, [pc, #288]	@ (8000a8c <HAL_GPIO_Init+0x2bc>)
 800096a:	6a7b      	ldr	r3, [r7, #36]	@ 0x24
 800096c:	089b      	lsrs	r3, r3, #2
 800096e:	3302      	adds	r3, #2
 8000970:	f852 3023 	ldr.w	r3, [r2, r3, lsl #2]
 8000974:	60fb      	str	r3, [r7, #12]
        CLEAR_BIT(temp, (0x0Fu) << (4u * (position & 0x03u)));
 8000976:	6a7b      	ldr	r3, [r7, #36]	@ 0x24
 8000978:	f003 0303 	and.w	r3, r3, #3
 800097c:	009b      	lsls	r3, r3, #2
 800097e:	220f      	movs	r2, #15
 8000980:	fa02 f303 	lsl.w	r3, r2, r3
 8000984:	43db      	mvns	r3, r3
 8000986:	68fa      	ldr	r2, [r7, #12]
 8000988:	4013      	ands	r3, r2
 800098a:	60fb      	str	r3, [r7, #12]
        SET_BIT(temp, (GPIO_GET_INDEX(GPIOx)) << (4u * (position & 0x03u)));
 800098c:	687b      	ldr	r3, [r7, #4]
 800098e:	4a40      	ldr	r2, [pc, #256]	@ (8000a90 <HAL_GPIO_Init+0x2c0>)
 8000990:	4293      	cmp	r3, r2
 8000992:	d013      	beq.n	80009bc <HAL_GPIO_Init+0x1ec>
 8000994:	687b      	ldr	r3, [r7, #4]
 8000996:	4a3f      	ldr	r2, [pc, #252]	@ (8000a94 <HAL_GPIO_Init+0x2c4>)
 8000998:	4293      	cmp	r3, r2
 800099a:	d00d      	beq.n	80009b8 <HAL_GPIO_Init+0x1e8>
 800099c:	687b      	ldr	r3, [r7, #4]
 800099e:	4a3e      	ldr	r2, [pc, #248]	@ (8000a98 <HAL_GPIO_Init+0x2c8>)
 80009a0:	4293      	cmp	r3, r2
 80009a2:	d007      	beq.n	80009b4 <HAL_GPIO_Init+0x1e4>
 80009a4:	687b      	ldr	r3, [r7, #4]
 80009a6:	4a3d      	ldr	r2, [pc, #244]	@ (8000a9c <HAL_GPIO_Init+0x2cc>)
 80009a8:	4293      	cmp	r3, r2
 80009aa:	d101      	bne.n	80009b0 <HAL_GPIO_Init+0x1e0>
 80009ac:	2303      	movs	r3, #3
 80009ae:	e006      	b.n	80009be <HAL_GPIO_Init+0x1ee>
 80009b0:	2304      	movs	r3, #4
 80009b2:	e004      	b.n	80009be <HAL_GPIO_Init+0x1ee>
 80009b4:	2302      	movs	r3, #2
 80009b6:	e002      	b.n	80009be <HAL_GPIO_Init+0x1ee>
 80009b8:	2301      	movs	r3, #1
 80009ba:	e000      	b.n	80009be <HAL_GPIO_Init+0x1ee>
 80009bc:	2300      	movs	r3, #0
 80009be:	6a7a      	ldr	r2, [r7, #36]	@ 0x24
 80009c0:	f002 0203 	and.w	r2, r2, #3
 80009c4:	0092      	lsls	r2, r2, #2
 80009c6:	4093      	lsls	r3, r2
 80009c8:	68fa      	ldr	r2, [r7, #12]
 80009ca:	4313      	orrs	r3, r2
 80009cc:	60fb      	str	r3, [r7, #12]
        AFIO->EXTICR[position >> 2u] = temp;
 80009ce:	492f      	ldr	r1, [pc, #188]	@ (8000a8c <HAL_GPIO_Init+0x2bc>)
 80009d0:	6a7b      	ldr	r3, [r7, #36]	@ 0x24
 80009d2:	089b      	lsrs	r3, r3, #2
 80009d4:	3302      	adds	r3, #2
 80009d6:	68fa      	ldr	r2, [r7, #12]
 80009d8:	f841 2023 	str.w	r2, [r1, r3, lsl #2]


        /* Enable or disable the rising trigger */
        if ((GPIO_Init->Mode & RISING_EDGE) == RISING_EDGE)
 80009dc:	683b      	ldr	r3, [r7, #0]
 80009de:	685b      	ldr	r3, [r3, #4]
 80009e0:	f403 1380 	and.w	r3, r3, #1048576	@ 0x100000
 80009e4:	2b00      	cmp	r3, #0
 80009e6:	d006      	beq.n	80009f6 <HAL_GPIO_Init+0x226>
        {
          SET_BIT(EXTI->RTSR, iocurrent);
 80009e8:	4b2d      	ldr	r3, [pc, #180]	@ (8000aa0 <HAL_GPIO_Init+0x2d0>)
 80009ea:	689a      	ldr	r2, [r3, #8]
 80009ec:	492c      	ldr	r1, [pc, #176]	@ (8000aa0 <HAL_GPIO_Init+0x2d0>)
 80009ee:	69bb      	ldr	r3, [r7, #24]
 80009f0:	4313      	orrs	r3, r2
 80009f2:	608b      	str	r3, [r1, #8]
 80009f4:	e006      	b.n	8000a04 <HAL_GPIO_Init+0x234>
        }
        else
        {
          CLEAR_BIT(EXTI->RTSR, iocurrent);
 80009f6:	4b2a      	ldr	r3, [pc, #168]	@ (8000aa0 <HAL_GPIO_Init+0x2d0>)
 80009f8:	689a      	ldr	r2, [r3, #8]
 80009fa:	69bb      	ldr	r3, [r7, #24]
 80009fc:	43db      	mvns	r3, r3
 80009fe:	4928      	ldr	r1, [pc, #160]	@ (8000aa0 <HAL_GPIO_Init+0x2d0>)
 8000a00:	4013      	ands	r3, r2
 8000a02:	608b      	str	r3, [r1, #8]
        }

        /* Enable or disable the falling trigger */
        if ((GPIO_Init->Mode & FALLING_EDGE) == FALLING_EDGE)
 8000a04:	683b      	ldr	r3, [r7, #0]
 8000a06:	685b      	ldr	r3, [r3, #4]
 8000a08:	f403 1300 	and.w	r3, r3, #2097152	@ 0x200000
 8000a0c:	2b00      	cmp	r3, #0
 8000a0e:	d006      	beq.n	8000a1e <HAL_GPIO_Init+0x24e>
        {
          SET_BIT(EXTI->FTSR, iocurrent);
 8000a10:	4b23      	ldr	r3, [pc, #140]	@ (8000aa0 <HAL_GPIO_Init+0x2d0>)
 8000a12:	68da      	ldr	r2, [r3, #12]
 8000a14:	4922      	ldr	r1, [pc, #136]	@ (8000aa0 <HAL_GPIO_Init+0x2d0>)
 8000a16:	69bb      	ldr	r3, [r7, #24]
 8000a18:	4313      	orrs	r3, r2
 8000a1a:	60cb      	str	r3, [r1, #12]
 8000a1c:	e006      	b.n	8000a2c <HAL_GPIO_Init+0x25c>
        }
        else
        {
          CLEAR_BIT(EXTI->FTSR, iocurrent);
 8000a1e:	4b20      	ldr	r3, [pc, #128]	@ (8000aa0 <HAL_GPIO_Init+0x2d0>)
 8000a20:	68da      	ldr	r2, [r3, #12]
 8000a22:	69bb      	ldr	r3, [r7, #24]
 8000a24:	43db      	mvns	r3, r3
 8000a26:	491e      	ldr	r1, [pc, #120]	@ (8000aa0 <HAL_GPIO_Init+0x2d0>)
 8000a28:	4013      	ands	r3, r2
 8000a2a:	60cb      	str	r3, [r1, #12]
        }

        /* Configure the event mask */
        if ((GPIO_Init->Mode & GPIO_MODE_EVT) == GPIO_MODE_EVT)
 8000a2c:	683b      	ldr	r3, [r7, #0]
 8000a2e:	685b      	ldr	r3, [r3, #4]
 8000a30:	f403 3300 	and.w	r3, r3, #131072	@ 0x20000
 8000a34:	2b00      	cmp	r3, #0
 8000a36:	d006      	beq.n	8000a46 <HAL_GPIO_Init+0x276>
        {
          SET_BIT(EXTI->EMR, iocurrent);
 8000a38:	4b19      	ldr	r3, [pc, #100]	@ (8000aa0 <HAL_GPIO_Init+0x2d0>)
 8000a3a:	685a      	ldr	r2, [r3, #4]
 8000a3c:	4918      	ldr	r1, [pc, #96]	@ (8000aa0 <HAL_GPIO_Init+0x2d0>)
 8000a3e:	69bb      	ldr	r3, [r7, #24]
 8000a40:	4313      	orrs	r3, r2
 8000a42:	604b      	str	r3, [r1, #4]
 8000a44:	e006      	b.n	8000a54 <HAL_GPIO_Init+0x284>
        }
        else
        {
          CLEAR_BIT(EXTI->EMR, iocurrent);
 8000a46:	4b16      	ldr	r3, [pc, #88]	@ (8000aa0 <HAL_GPIO_Init+0x2d0>)
 8000a48:	685a      	ldr	r2, [r3, #4]
 8000a4a:	69bb      	ldr	r3, [r7, #24]
 8000a4c:	43db      	mvns	r3, r3
 8000a4e:	4914      	ldr	r1, [pc, #80]	@ (8000aa0 <HAL_GPIO_Init+0x2d0>)
 8000a50:	4013      	ands	r3, r2
 8000a52:	604b      	str	r3, [r1, #4]
        }

        /* Configure the interrupt mask */
        if ((GPIO_Init->Mode & GPIO_MODE_IT) == GPIO_MODE_IT)
 8000a54:	683b      	ldr	r3, [r7, #0]
 8000a56:	685b      	ldr	r3, [r3, #4]
 8000a58:	f403 3380 	and.w	r3, r3, #65536	@ 0x10000
 8000a5c:	2b00      	cmp	r3, #0
 8000a5e:	d021      	beq.n	8000aa4 <HAL_GPIO_Init+0x2d4>
        {
          SET_BIT(EXTI->IMR, iocurrent);
 8000a60:	4b0f      	ldr	r3, [pc, #60]	@ (8000aa0 <HAL_GPIO_Init+0x2d0>)
 8000a62:	681a      	ldr	r2, [r3, #0]
 8000a64:	490e      	ldr	r1, [pc, #56]	@ (8000aa0 <HAL_GPIO_Init+0x2d0>)
 8000a66:	69bb      	ldr	r3, [r7, #24]
 8000a68:	4313      	orrs	r3, r2
 8000a6a:	600b      	str	r3, [r1, #0]
 8000a6c:	e021      	b.n	8000ab2 <HAL_GPIO_Init+0x2e2>
 8000a6e:	bf00      	nop
 8000a70:	10320000 	.word	0x10320000
 8000a74:	10310000 	.word	0x10310000
 8000a78:	10220000 	.word	0x10220000
 8000a7c:	10210000 	.word	0x10210000
 8000a80:	10120000 	.word	0x10120000
 8000a84:	10110000 	.word	0x10110000
 8000a88:	40021000 	.word	0x40021000
 8000a8c:	40010000 	.word	0x40010000
 8000a90:	40010800 	.word	0x40010800
 8000a94:	40010c00 	.word	0x40010c00
 8000a98:	40011000 	.word	0x40011000
 8000a9c:	40011400 	.word	0x40011400
 8000aa0:	40010400 	.word	0x40010400
        }
        else
        {
          CLEAR_BIT(EXTI->IMR, iocurrent);
 8000aa4:	4b0b      	ldr	r3, [pc, #44]	@ (8000ad4 <HAL_GPIO_Init+0x304>)
 8000aa6:	681a      	ldr	r2, [r3, #0]
 8000aa8:	69bb      	ldr	r3, [r7, #24]
 8000aaa:	43db      	mvns	r3, r3
 8000aac:	4909      	ldr	r1, [pc, #36]	@ (8000ad4 <HAL_GPIO_Init+0x304>)
 8000aae:	4013      	ands	r3, r2
 8000ab0:	600b      	str	r3, [r1, #0]
        }
      }
    }

	position++;
 8000ab2:	6a7b      	ldr	r3, [r7, #36]	@ 0x24
 8000ab4:	3301      	adds	r3, #1
 8000ab6:	627b      	str	r3, [r7, #36]	@ 0x24
  while (((GPIO_Init->Pin) >> position) != 0x00u)
 8000ab8:	683b      	ldr	r3, [r7, #0]
 8000aba:	681a      	ldr	r2, [r3, #0]
 8000abc:	6a7b      	ldr	r3, [r7, #36]	@ 0x24
 8000abe:	fa22 f303 	lsr.w	r3, r2, r3
 8000ac2:	2b00      	cmp	r3, #0
 8000ac4:	f47f ae8e 	bne.w	80007e4 <HAL_GPIO_Init+0x14>
  }
}
 8000ac8:	bf00      	nop
 8000aca:	bf00      	nop
 8000acc:	372c      	adds	r7, #44	@ 0x2c
 8000ace:	46bd      	mov	sp, r7
 8000ad0:	bc80      	pop	{r7}
 8000ad2:	4770      	bx	lr
 8000ad4:	40010400 	.word	0x40010400

08000ad8 <HAL_RCC_OscConfig>:
  *         supported by this macro. User should request a transition to HSE Off
  *         first and then HSE On or HSE Bypass.
  * @retval HAL status
  */
HAL_StatusTypeDef HAL_RCC_OscConfig(RCC_OscInitTypeDef  *RCC_OscInitStruct)
{
 8000ad8:	b580      	push	{r7, lr}
 8000ada:	b086      	sub	sp, #24
 8000adc:	af00      	add	r7, sp, #0
 8000ade:	6078      	str	r0, [r7, #4]
  uint32_t tickstart;
  uint32_t pll_config;

  /* Check Null pointer */
  if (RCC_OscInitStruct == NULL)
 8000ae0:	687b      	ldr	r3, [r7, #4]
 8000ae2:	2b00      	cmp	r3, #0
 8000ae4:	d101      	bne.n	8000aea <HAL_RCC_OscConfig+0x12>
  {
    return HAL_ERROR;
 8000ae6:	2301      	movs	r3, #1
 8000ae8:	e272      	b.n	8000fd0 <HAL_RCC_OscConfig+0x4f8>

  /* Check the parameters */
  assert_param(IS_RCC_OSCILLATORTYPE(RCC_OscInitStruct->OscillatorType));

  /*------------------------------- HSE Configuration ------------------------*/
  if (((RCC_OscInitStruct->OscillatorType) & RCC_OSCILLATORTYPE_HSE) == RCC_OSCILLATORTYPE_HSE)
 8000aea:	687b      	ldr	r3, [r7, #4]
 8000aec:	681b      	ldr	r3, [r3, #0]
 8000aee:	f003 0301 	and.w	r3, r3, #1
 8000af2:	2b00      	cmp	r3, #0
 8000af4:	f000 8087 	beq.w	8000c06 <HAL_RCC_OscConfig+0x12e>
  {
    /* Check the parameters */
    assert_param(IS_RCC_HSE(RCC_OscInitStruct->HSEState));

    /* When the HSE is used as system clock or clock source for PLL in these cases it is not allowed to be disabled */
    if ((__HAL_RCC_GET_SYSCLK_SOURCE() == RCC_SYSCLKSOURCE_STATUS_HSE)
 8000af8:	4b92      	ldr	r3, [pc, #584]	@ (8000d44 <HAL_RCC_OscConfig+0x26c>)
 8000afa:	685b      	ldr	r3, [r3, #4]
 8000afc:	f003 030c 	and.w	r3, r3, #12
 8000b00:	2b04      	cmp	r3, #4
 8000b02:	d00c      	beq.n	8000b1e <HAL_RCC_OscConfig+0x46>
        || ((__HAL_RCC_GET_SYSCLK_SOURCE() == RCC_SYSCLKSOURCE_STATUS_PLLCLK) && (__HAL_RCC_GET_PLL_OSCSOURCE() == RCC_PLLSOURCE_HSE)))
 8000b04:	4b8f      	ldr	r3, [pc, #572]	@ (8000d44 <HAL_RCC_OscConfig+0x26c>)
 8000b06:	685b      	ldr	r3, [r3, #4]
 8000b08:	f003 030c 	and.w	r3, r3, #12
 8000b0c:	2b08      	cmp	r3, #8
 8000b0e:	d112      	bne.n	8000b36 <HAL_RCC_OscConfig+0x5e>
 8000b10:	4b8c      	ldr	r3, [pc, #560]	@ (8000d44 <HAL_RCC_OscConfig+0x26c>)
 8000b12:	685b      	ldr	r3, [r3, #4]
 8000b14:	f403 3380 	and.w	r3, r3, #65536	@ 0x10000
 8000b18:	f5b3 3f80 	cmp.w	r3, #65536	@ 0x10000
 8000b1c:	d10b      	bne.n	8000b36 <HAL_RCC_OscConfig+0x5e>
    {
      if ((__HAL_RCC_GET_FLAG(RCC_FLAG_HSERDY) != RESET) && (RCC_OscInitStruct->HSEState == RCC_HSE_OFF))
 8000b1e:	4b89      	ldr	r3, [pc, #548]	@ (8000d44 <HAL_RCC_OscConfig+0x26c>)
 8000b20:	681b      	ldr	r3, [r3, #0]
 8000b22:	f403 3300 	and.w	r3, r3, #131072	@ 0x20000
 8000b26:	2b00      	cmp	r3, #0
 8000b28:	d06c      	beq.n	8000c04 <HAL_RCC_OscConfig+0x12c>
 8000b2a:	687b      	ldr	r3, [r7, #4]
 8000b2c:	685b      	ldr	r3, [r3, #4]
 8000b2e:	2b00      	cmp	r3, #0
 8000b30:	d168      	bne.n	8000c04 <HAL_RCC_OscConfig+0x12c>
      {
        return HAL_ERROR;
 8000b32:	2301      	movs	r3, #1
 8000b34:	e24c      	b.n	8000fd0 <HAL_RCC_OscConfig+0x4f8>
      }
    }
    else
    {
      /* Set the new HSE configuration ---------------------------------------*/
      __HAL_RCC_HSE_CONFIG(RCC_OscInitStruct->HSEState);
 8000b36:	687b      	ldr	r3, [r7, #4]
 8000b38:	685b      	ldr	r3, [r3, #4]
 8000b3a:	f5b3 3f80 	cmp.w	r3, #65536	@ 0x10000
 8000b3e:	d106      	bne.n	8000b4e <HAL_RCC_OscConfig+0x76>
 8000b40:	4b80      	ldr	r3, [pc, #512]	@ (8000d44 <HAL_RCC_OscConfig+0x26c>)
 8000b42:	681b      	ldr	r3, [r3, #0]
 8000b44:	4a7f      	ldr	r2, [pc, #508]	@ (8000d44 <HAL_RCC_OscConfig+0x26c>)
 8000b46:	f443 3380 	orr.w	r3, r3, #65536	@ 0x10000
 8000b4a:	6013      	str	r3, [r2, #0]
 8000b4c:	e02e      	b.n	8000bac <HAL_RCC_OscConfig+0xd4>
 8000b4e:	687b      	ldr	r3, [r7, #4]
 8000b50:	685b      	ldr	r3, [r3, #4]
 8000b52:	2b00      	cmp	r3, #0
 8000b54:	d10c      	bne.n	8000b70 <HAL_RCC_OscConfig+0x98>
 8000b56:	4b7b      	ldr	r3, [pc, #492]	@ (8000d44 <HAL_RCC_OscConfig+0x26c>)
 8000b58:	681b      	ldr	r3, [r3, #0]
 8000b5a:	4a7a      	ldr	r2, [pc, #488]	@ (8000d44 <HAL_RCC_OscConfig+0x26c>)
 8000b5c:	f423 3380 	bic.w	r3, r3, #65536	@ 0x10000
 8000b60:	6013      	str	r3, [r2, #0]
 8000b62:	4b78      	ldr	r3, [pc, #480]	@ (8000d44 <HAL_RCC_OscConfig+0x26c>)
 8000b64:	681b      	ldr	r3, [r3, #0]
 8000b66:	4a77      	ldr	r2, [pc, #476]	@ (8000d44 <HAL_RCC_OscConfig+0x26c>)
 8000b68:	f423 2380 	bic.w	r3, r3, #262144	@ 0x40000
 8000b6c:	6013      	str	r3, [r2, #0]
 8000b6e:	e01d      	b.n	8000bac <HAL_RCC_OscConfig+0xd4>
 8000b70:	687b      	ldr	r3, [r7, #4]
 8000b72:	685b      	ldr	r3, [r3, #4]
 8000b74:	f5b3 2fa0 	cmp.w	r3, #327680	@ 0x50000
 8000b78:	d10c      	bne.n	8000b94 <HAL_RCC_OscConfig+0xbc>
 8000b7a:	4b72      	ldr	r3, [pc, #456]	@ (8000d44 <HAL_RCC_OscConfig+0x26c>)
 8000b7c:	681b      	ldr	r3, [r3, #0]
 8000b7e:	4a71      	ldr	r2, [pc, #452]	@ (8000d44 <HAL_RCC_OscConfig+0x26c>)
 8000b80:	f443 2380 	orr.w	r3, r3, #262144	@ 0x40000
 8000b84:	6013      	str	r3, [r2, #0]
 8000b86:	4b6f      	ldr	r3, [pc, #444]	@ (8000d44 <HAL_RCC_OscConfig+0x26c>)
 8000b88:	681b      	ldr	r3, [r3, #0]
 8000b8a:	4a6e      	ldr	r2, [pc, #440]	@ (8000d44 <HAL_RCC_OscConfig+0x26c>)
 8000b8c:	f443 3380 	orr.w	r3, r3, #65536	@ 0x10000
 8000b90:	6013      	str	r3, [r2, #0]
 8000b92:	e00b      	b.n	8000bac <HAL_RCC_OscConfig+0xd4>
 8000b94:	4b6b      	ldr	r3, [pc, #428]	@ (8000d44 <HAL_RCC_OscConfig+0x26c>)
 8000b96:	681b      	ldr	r3, [r3, #0]
 8000b98:	4a6a      	ldr	r2, [pc, #424]	@ (8000d44 <HAL_RCC_OscConfig+0x26c>)
 8000b9a:	f423 3380 	bic.w	r3, r3, #65536	@ 0x10000
 8000b9e:	6013      	str	r3, [r2, #0]
 8000ba0:	4b68      	ldr	r3, [pc, #416]	@ (8000d44 <HAL_RCC_OscConfig+0x26c>)
 8000ba2:	681b      	ldr	r3, [r3, #0]
 8000ba4:	4a67      	ldr	r2, [pc, #412]	@ (8000d44 <HAL_RCC_OscConfig+0x26c>)
 8000ba6:	f423 2380 	bic.w	r3, r3, #262144	@ 0x40000
 8000baa:	6013      	str	r3, [r2, #0]


      /* Check the HSE State */
      if (RCC_OscInitStruct->HSEState != RCC_HSE_OFF)
 8000bac:	687b      	ldr	r3, [r7, #4]
 8000bae:	685b      	ldr	r3, [r3, #4]
 8000bb0:	2b00      	cmp	r3, #0
 8000bb2:	d013      	beq.n	8000bdc <HAL_RCC_OscConfig+0x104>
      {
        /* Get Start Tick */
        tickstart = HAL_GetTick();
 8000bb4:	f7ff fcfa 	bl	80005ac <HAL_GetTick>
 8000bb8:	6138      	str	r0, [r7, #16]

        /* Wait till HSE is ready */
        while (__HAL_RCC_GET_FLAG(RCC_FLAG_HSERDY) == RESET)
 8000bba:	e008      	b.n	8000bce <HAL_RCC_OscConfig+0xf6>
        {
          if ((HAL_GetTick() - tickstart) > HSE_TIMEOUT_VALUE)
 8000bbc:	f7ff fcf6 	bl	80005ac <HAL_GetTick>
 8000bc0:	4602      	mov	r2, r0
 8000bc2:	693b      	ldr	r3, [r7, #16]
 8000bc4:	1ad3      	subs	r3, r2, r3
 8000bc6:	2b64      	cmp	r3, #100	@ 0x64
 8000bc8:	d901      	bls.n	8000bce <HAL_RCC_OscConfig+0xf6>
          {
            return HAL_TIMEOUT;
 8000bca:	2303      	movs	r3, #3
 8000bcc:	e200      	b.n	8000fd0 <HAL_RCC_OscConfig+0x4f8>
        while (__HAL_RCC_GET_FLAG(RCC_FLAG_HSERDY) == RESET)
 8000bce:	4b5d      	ldr	r3, [pc, #372]	@ (8000d44 <HAL_RCC_OscConfig+0x26c>)
 8000bd0:	681b      	ldr	r3, [r3, #0]
 8000bd2:	f403 3300 	and.w	r3, r3, #131072	@ 0x20000
 8000bd6:	2b00      	cmp	r3, #0
 8000bd8:	d0f0      	beq.n	8000bbc <HAL_RCC_OscConfig+0xe4>
 8000bda:	e014      	b.n	8000c06 <HAL_RCC_OscConfig+0x12e>
        }
      }
      else
      {
        /* Get Start Tick */
        tickstart = HAL_GetTick();
 8000bdc:	f7ff fce6 	bl	80005ac <HAL_GetTick>
 8000be0:	6138      	str	r0, [r7, #16]

        /* Wait till HSE is disabled */
        while (__HAL_RCC_GET_FLAG(RCC_FLAG_HSERDY) != RESET)
 8000be2:	e008      	b.n	8000bf6 <HAL_RCC_OscConfig+0x11e>
        {
          if ((HAL_GetTick() - tickstart) > HSE_TIMEOUT_VALUE)
 8000be4:	f7ff fce2 	bl	80005ac <HAL_GetTick>
 8000be8:	4602      	mov	r2, r0
 8000bea:	693b      	ldr	r3, [r7, #16]
 8000bec:	1ad3      	subs	r3, r2, r3
 8000bee:	2b64      	cmp	r3, #100	@ 0x64
 8000bf0:	d901      	bls.n	8000bf6 <HAL_RCC_OscConfig+0x11e>
          {
            return HAL_TIMEOUT;
 8000bf2:	2303      	movs	r3, #3
 8000bf4:	e1ec      	b.n	8000fd0 <HAL_RCC_OscConfig+0x4f8>
        while (__HAL_RCC_GET_FLAG(RCC_FLAG_HSERDY) != RESET)
 8000bf6:	4b53      	ldr	r3, [pc, #332]	@ (8000d44 <HAL_RCC_OscConfig+0x26c>)
 8000bf8:	681b      	ldr	r3, [r3, #0]
 8000bfa:	f403 3300 	and.w	r3, r3, #131072	@ 0x20000
 8000bfe:	2b00      	cmp	r3, #0
 8000c00:	d1f0      	bne.n	8000be4 <HAL_RCC_OscConfig+0x10c>
 8000c02:	e000      	b.n	8000c06 <HAL_RCC_OscConfig+0x12e>
      if ((__HAL_RCC_GET_FLAG(RCC_FLAG_HSERDY) != RESET) && (RCC_OscInitStruct->HSEState == RCC_HSE_OFF))
 8000c04:	bf00      	nop
        }
      }
    }
  }
  /*----------------------------- HSI Configuration --------------------------*/
  if (((RCC_OscInitStruct->OscillatorType) & RCC_OSCILLATORTYPE_HSI) == RCC_OSCILLATORTYPE_HSI)
 8000c06:	687b      	ldr	r3, [r7, #4]
 8000c08:	681b      	ldr	r3, [r3, #0]
 8000c0a:	f003 0302 	and.w	r3, r3, #2
 8000c0e:	2b00      	cmp	r3, #0
 8000c10:	d063      	beq.n	8000cda <HAL_RCC_OscConfig+0x202>
    /* Check the parameters */
    assert_param(IS_RCC_HSI(RCC_OscInitStruct->HSIState));
    assert_param(IS_RCC_CALIBRATION_VALUE(RCC_OscInitStruct->HSICalibrationValue));

    /* Check if HSI is used as system clock or as PLL source when PLL is selected as system clock */
    if ((__HAL_RCC_GET_SYSCLK_SOURCE() == RCC_SYSCLKSOURCE_STATUS_HSI)
 8000c12:	4b4c      	ldr	r3, [pc, #304]	@ (8000d44 <HAL_RCC_OscConfig+0x26c>)
 8000c14:	685b      	ldr	r3, [r3, #4]
 8000c16:	f003 030c 	and.w	r3, r3, #12
 8000c1a:	2b00      	cmp	r3, #0
 8000c1c:	d00b      	beq.n	8000c36 <HAL_RCC_OscConfig+0x15e>
        || ((__HAL_RCC_GET_SYSCLK_SOURCE() == RCC_SYSCLKSOURCE_STATUS_PLLCLK) && (__HAL_RCC_GET_PLL_OSCSOURCE() == RCC_PLLSOURCE_HSI_DIV2)))
 8000c1e:	4b49      	ldr	r3, [pc, #292]	@ (8000d44 <HAL_RCC_OscConfig+0x26c>)
 8000c20:	685b      	ldr	r3, [r3, #4]
 8000c22:	f003 030c 	and.w	r3, r3, #12
 8000c26:	2b08      	cmp	r3, #8
 8000c28:	d11c      	bne.n	8000c64 <HAL_RCC_OscConfig+0x18c>
 8000c2a:	4b46      	ldr	r3, [pc, #280]	@ (8000d44 <HAL_RCC_OscConfig+0x26c>)
 8000c2c:	685b      	ldr	r3, [r3, #4]
 8000c2e:	f403 3380 	and.w	r3, r3, #65536	@ 0x10000
 8000c32:	2b00      	cmp	r3, #0
 8000c34:	d116      	bne.n	8000c64 <HAL_RCC_OscConfig+0x18c>
    {
      /* When HSI is used as system clock it will not disabled */
      if ((__HAL_RCC_GET_FLAG(RCC_FLAG_HSIRDY) != RESET) && (RCC_OscInitStruct->HSIState != RCC_HSI_ON))
 8000c36:	4b43      	ldr	r3, [pc, #268]	@ (8000d44 <HAL_RCC_OscConfig+0x26c>)
 8000c38:	681b      	ldr	r3, [r3, #0]
 8000c3a:	f003 0302 	and.w	r3, r3, #2
 8000c3e:	2b00      	cmp	r3, #0
 8000c40:	d005      	beq.n	8000c4e <HAL_RCC_OscConfig+0x176>
 8000c42:	687b      	ldr	r3, [r7, #4]
 8000c44:	691b      	ldr	r3, [r3, #16]
 8000c46:	2b01      	cmp	r3, #1
 8000c48:	d001      	beq.n	8000c4e <HAL_RCC_OscConfig+0x176>
      {
        return HAL_ERROR;
 8000c4a:	2301      	movs	r3, #1
 8000c4c:	e1c0      	b.n	8000fd0 <HAL_RCC_OscConfig+0x4f8>
      }
      /* Otherwise, just the calibration is allowed */
      else
      {
        /* Adjusts the Internal High Speed oscillator (HSI) calibration value.*/
        __HAL_RCC_HSI_CALIBRATIONVALUE_ADJUST(RCC_OscInitStruct->HSICalibrationValue);
 8000c4e:	4b3d      	ldr	r3, [pc, #244]	@ (8000d44 <HAL_RCC_OscConfig+0x26c>)
 8000c50:	681b      	ldr	r3, [r3, #0]
 8000c52:	f023 02f8 	bic.w	r2, r3, #248	@ 0xf8
 8000c56:	687b      	ldr	r3, [r7, #4]
 8000c58:	695b      	ldr	r3, [r3, #20]
 8000c5a:	00db      	lsls	r3, r3, #3
 8000c5c:	4939      	ldr	r1, [pc, #228]	@ (8000d44 <HAL_RCC_OscConfig+0x26c>)
 8000c5e:	4313      	orrs	r3, r2
 8000c60:	600b      	str	r3, [r1, #0]
      if ((__HAL_RCC_GET_FLAG(RCC_FLAG_HSIRDY) != RESET) && (RCC_OscInitStruct->HSIState != RCC_HSI_ON))
 8000c62:	e03a      	b.n	8000cda <HAL_RCC_OscConfig+0x202>
      }
    }
    else
    {
      /* Check the HSI State */
      if (RCC_OscInitStruct->HSIState != RCC_HSI_OFF)
 8000c64:	687b      	ldr	r3, [r7, #4]
 8000c66:	691b      	ldr	r3, [r3, #16]
 8000c68:	2b00      	cmp	r3, #0
 8000c6a:	d020      	beq.n	8000cae <HAL_RCC_OscConfig+0x1d6>
      {
        /* Enable the Internal High Speed oscillator (HSI). */
        __HAL_RCC_HSI_ENABLE();
 8000c6c:	4b36      	ldr	r3, [pc, #216]	@ (8000d48 <HAL_RCC_OscConfig+0x270>)
 8000c6e:	2201      	movs	r2, #1
 8000c70:	601a      	str	r2, [r3, #0]

        /* Get Start Tick */
        tickstart = HAL_GetTick();
 8000c72:	f7ff fc9b 	bl	80005ac <HAL_GetTick>
 8000c76:	6138      	str	r0, [r7, #16]

        /* Wait till HSI is ready */
        while (__HAL_RCC_GET_FLAG(RCC_FLAG_HSIRDY) == RESET)
 8000c78:	e008      	b.n	8000c8c <HAL_RCC_OscConfig+0x1b4>
        {
          if ((HAL_GetTick() - tickstart) > HSI_TIMEOUT_VALUE)
 8000c7a:	f7ff fc97 	bl	80005ac <HAL_GetTick>
 8000c7e:	4602      	mov	r2, r0
 8000c80:	693b      	ldr	r3, [r7, #16]
 8000c82:	1ad3      	subs	r3, r2, r3
 8000c84:	2b02      	cmp	r3, #2
 8000c86:	d901      	bls.n	8000c8c <HAL_RCC_OscConfig+0x1b4>
          {
            return HAL_TIMEOUT;
 8000c88:	2303      	movs	r3, #3
 8000c8a:	e1a1      	b.n	8000fd0 <HAL_RCC_OscConfig+0x4f8>
        while (__HAL_RCC_GET_FLAG(RCC_FLAG_HSIRDY) == RESET)
 8000c8c:	4b2d      	ldr	r3, [pc, #180]	@ (8000d44 <HAL_RCC_OscConfig+0x26c>)
 8000c8e:	681b      	ldr	r3, [r3, #0]
 8000c90:	f003 0302 	and.w	r3, r3, #2
 8000c94:	2b00      	cmp	r3, #0
 8000c96:	d0f0      	beq.n	8000c7a <HAL_RCC_OscConfig+0x1a2>
          }
        }

        /* Adjusts the Internal High Speed oscillator (HSI) calibration value.*/
        __HAL_RCC_HSI_CALIBRATIONVALUE_ADJUST(RCC_OscInitStruct->HSICalibrationValue);
 8000c98:	4b2a      	ldr	r3, [pc, #168]	@ (8000d44 <HAL_RCC_OscConfig+0x26c>)
 8000c9a:	681b      	ldr	r3, [r3, #0]
 8000c9c:	f023 02f8 	bic.w	r2, r3, #248	@ 0xf8
 8000ca0:	687b      	ldr	r3, [r7, #4]
 8000ca2:	695b      	ldr	r3, [r3, #20]
 8000ca4:	00db      	lsls	r3, r3, #3
 8000ca6:	4927      	ldr	r1, [pc, #156]	@ (8000d44 <HAL_RCC_OscConfig+0x26c>)
 8000ca8:	4313      	orrs	r3, r2
 8000caa:	600b      	str	r3, [r1, #0]
 8000cac:	e015      	b.n	8000cda <HAL_RCC_OscConfig+0x202>
      }
      else
      {
        /* Disable the Internal High Speed oscillator (HSI). */
        __HAL_RCC_HSI_DISABLE();
 8000cae:	4b26      	ldr	r3, [pc, #152]	@ (8000d48 <HAL_RCC_OscConfig+0x270>)
 8000cb0:	2200      	movs	r2, #0
 8000cb2:	601a      	str	r2, [r3, #0]

        /* Get Start Tick */
        tickstart = HAL_GetTick();
 8000cb4:	f7ff fc7a 	bl	80005ac <HAL_GetTick>
 8000cb8:	6138      	str	r0, [r7, #16]

        /* Wait till HSI is disabled */
        while (__HAL_RCC_GET_FLAG(RCC_FLAG_HSIRDY) != RESET)
 8000cba:	e008      	b.n	8000cce <HAL_RCC_OscConfig+0x1f6>
        {
          if ((HAL_GetTick() - tickstart) > HSI_TIMEOUT_VALUE)
 8000cbc:	f7ff fc76 	bl	80005ac <HAL_GetTick>
 8000cc0:	4602      	mov	r2, r0
 8000cc2:	693b      	ldr	r3, [r7, #16]
 8000cc4:	1ad3      	subs	r3, r2, r3
 8000cc6:	2b02      	cmp	r3, #2
 8000cc8:	d901      	bls.n	8000cce <HAL_RCC_OscConfig+0x1f6>
          {
            return HAL_TIMEOUT;
 8000cca:	2303      	movs	r3, #3
 8000ccc:	e180      	b.n	8000fd0 <HAL_RCC_OscConfig+0x4f8>
        while (__HAL_RCC_GET_FLAG(RCC_FLAG_HSIRDY) != RESET)
 8000cce:	4b1d      	ldr	r3, [pc, #116]	@ (8000d44 <HAL_RCC_OscConfig+0x26c>)
 8000cd0:	681b      	ldr	r3, [r3, #0]
 8000cd2:	f003 0302 	and.w	r3, r3, #2
 8000cd6:	2b00      	cmp	r3, #0
 8000cd8:	d1f0      	bne.n	8000cbc <HAL_RCC_OscConfig+0x1e4>
        }
      }
    }
  }
  /*------------------------------ LSI Configuration -------------------------*/
  if (((RCC_OscInitStruct->OscillatorType) & RCC_OSCILLATORTYPE_LSI) == RCC_OSCILLATORTYPE_LSI)
 8000cda:	687b      	ldr	r3, [r7, #4]
 8000cdc:	681b      	ldr	r3, [r3, #0]
 8000cde:	f003 0308 	and.w	r3, r3, #8
 8000ce2:	2b00      	cmp	r3, #0
 8000ce4:	d03a      	beq.n	8000d5c <HAL_RCC_OscConfig+0x284>
  {
    /* Check the parameters */
    assert_param(IS_RCC_LSI(RCC_OscInitStruct->LSIState));

    /* Check the LSI State */
    if (RCC_OscInitStruct->LSIState != RCC_LSI_OFF)
 8000ce6:	687b      	ldr	r3, [r7, #4]
 8000ce8:	699b      	ldr	r3, [r3, #24]
 8000cea:	2b00      	cmp	r3, #0
 8000cec:	d019      	beq.n	8000d22 <HAL_RCC_OscConfig+0x24a>
    {
      /* Enable the Internal Low Speed oscillator (LSI). */
      __HAL_RCC_LSI_ENABLE();
 8000cee:	4b17      	ldr	r3, [pc, #92]	@ (8000d4c <HAL_RCC_OscConfig+0x274>)
 8000cf0:	2201      	movs	r2, #1
 8000cf2:	601a      	str	r2, [r3, #0]

      /* Get Start Tick */
      tickstart = HAL_GetTick();
 8000cf4:	f7ff fc5a 	bl	80005ac <HAL_GetTick>
 8000cf8:	6138      	str	r0, [r7, #16]

      /* Wait till LSI is ready */
      while (__HAL_RCC_GET_FLAG(RCC_FLAG_LSIRDY) == RESET)
 8000cfa:	e008      	b.n	8000d0e <HAL_RCC_OscConfig+0x236>
      {
        if ((HAL_GetTick() - tickstart) > LSI_TIMEOUT_VALUE)
 8000cfc:	f7ff fc56 	bl	80005ac <HAL_GetTick>
 8000d00:	4602      	mov	r2, r0
 8000d02:	693b      	ldr	r3, [r7, #16]
 8000d04:	1ad3      	subs	r3, r2, r3
 8000d06:	2b02      	cmp	r3, #2
 8000d08:	d901      	bls.n	8000d0e <HAL_RCC_OscConfig+0x236>
        {
          return HAL_TIMEOUT;
 8000d0a:	2303      	movs	r3, #3
 8000d0c:	e160      	b.n	8000fd0 <HAL_RCC_OscConfig+0x4f8>
      while (__HAL_RCC_GET_FLAG(RCC_FLAG_LSIRDY) == RESET)
 8000d0e:	4b0d      	ldr	r3, [pc, #52]	@ (8000d44 <HAL_RCC_OscConfig+0x26c>)
 8000d10:	6a5b      	ldr	r3, [r3, #36]	@ 0x24
 8000d12:	f003 0302 	and.w	r3, r3, #2
 8000d16:	2b00      	cmp	r3, #0
 8000d18:	d0f0      	beq.n	8000cfc <HAL_RCC_OscConfig+0x224>
        }
      }
      /*  To have a fully stabilized clock in the specified range, a software delay of 1ms
          should be added.*/
      RCC_Delay(1);
 8000d1a:	2001      	movs	r0, #1
 8000d1c:	f000 face 	bl	80012bc <RCC_Delay>
 8000d20:	e01c      	b.n	8000d5c <HAL_RCC_OscConfig+0x284>
    }
    else
    {
      /* Disable the Internal Low Speed oscillator (LSI). */
      __HAL_RCC_LSI_DISABLE();
 8000d22:	4b0a      	ldr	r3, [pc, #40]	@ (8000d4c <HAL_RCC_OscConfig+0x274>)
 8000d24:	2200      	movs	r2, #0
 8000d26:	601a      	str	r2, [r3, #0]

      /* Get Start Tick */
      tickstart = HAL_GetTick();
 8000d28:	f7ff fc40 	bl	80005ac <HAL_GetTick>
 8000d2c:	6138      	str	r0, [r7, #16]

      /* Wait till LSI is disabled */
      while (__HAL_RCC_GET_FLAG(RCC_FLAG_LSIRDY) != RESET)
 8000d2e:	e00f      	b.n	8000d50 <HAL_RCC_OscConfig+0x278>
      {
        if ((HAL_GetTick() - tickstart) > LSI_TIMEOUT_VALUE)
 8000d30:	f7ff fc3c 	bl	80005ac <HAL_GetTick>
 8000d34:	4602      	mov	r2, r0
 8000d36:	693b      	ldr	r3, [r7, #16]
 8000d38:	1ad3      	subs	r3, r2, r3
 8000d3a:	2b02      	cmp	r3, #2
 8000d3c:	d908      	bls.n	8000d50 <HAL_RCC_OscConfig+0x278>
        {
          return HAL_TIMEOUT;
 8000d3e:	2303      	movs	r3, #3
 8000d40:	e146      	b.n	8000fd0 <HAL_RCC_OscConfig+0x4f8>
 8000d42:	bf00      	nop
 8000d44:	40021000 	.word	0x40021000
 8000d48:	42420000 	.word	0x42420000
 8000d4c:	42420480 	.word	0x42420480
      while (__HAL_RCC_GET_FLAG(RCC_FLAG_LSIRDY) != RESET)
 8000d50:	4b92      	ldr	r3, [pc, #584]	@ (8000f9c <HAL_RCC_OscConfig+0x4c4>)
 8000d52:	6a5b      	ldr	r3, [r3, #36]	@ 0x24
 8000d54:	f003 0302 	and.w	r3, r3, #2
 8000d58:	2b00      	cmp	r3, #0
 8000d5a:	d1e9      	bne.n	8000d30 <HAL_RCC_OscConfig+0x258>
        }
      }
    }
  }
  /*------------------------------ LSE Configuration -------------------------*/
  if (((RCC_OscInitStruct->OscillatorType) & RCC_OSCILLATORTYPE_LSE) == RCC_OSCILLATORTYPE_LSE)
 8000d5c:	687b      	ldr	r3, [r7, #4]
 8000d5e:	681b      	ldr	r3, [r3, #0]
 8000d60:	f003 0304 	and.w	r3, r3, #4
 8000d64:	2b00      	cmp	r3, #0
 8000d66:	f000 80a6 	beq.w	8000eb6 <HAL_RCC_OscConfig+0x3de>
  {
    FlagStatus       pwrclkchanged = RESET;
 8000d6a:	2300      	movs	r3, #0
 8000d6c:	75fb      	strb	r3, [r7, #23]
    /* Check the parameters */
    assert_param(IS_RCC_LSE(RCC_OscInitStruct->LSEState));

    /* Update LSE configuration in Backup Domain control register    */
    /* Requires to enable write access to Backup Domain of necessary */
    if (__HAL_RCC_PWR_IS_CLK_DISABLED())
 8000d6e:	4b8b      	ldr	r3, [pc, #556]	@ (8000f9c <HAL_RCC_OscConfig+0x4c4>)
 8000d70:	69db      	ldr	r3, [r3, #28]
 8000d72:	f003 5380 	and.w	r3, r3, #268435456	@ 0x10000000
 8000d76:	2b00      	cmp	r3, #0
 8000d78:	d10d      	bne.n	8000d96 <HAL_RCC_OscConfig+0x2be>
    {
      __HAL_RCC_PWR_CLK_ENABLE();
 8000d7a:	4b88      	ldr	r3, [pc, #544]	@ (8000f9c <HAL_RCC_OscConfig+0x4c4>)
 8000d7c:	69db      	ldr	r3, [r3, #28]
 8000d7e:	4a87      	ldr	r2, [pc, #540]	@ (8000f9c <HAL_RCC_OscConfig+0x4c4>)
 8000d80:	f043 5380 	orr.w	r3, r3, #268435456	@ 0x10000000
 8000d84:	61d3      	str	r3, [r2, #28]
 8000d86:	4b85      	ldr	r3, [pc, #532]	@ (8000f9c <HAL_RCC_OscConfig+0x4c4>)
 8000d88:	69db      	ldr	r3, [r3, #28]
 8000d8a:	f003 5380 	and.w	r3, r3, #268435456	@ 0x10000000
 8000d8e:	60bb      	str	r3, [r7, #8]
 8000d90:	68bb      	ldr	r3, [r7, #8]
      pwrclkchanged = SET;
 8000d92:	2301      	movs	r3, #1
 8000d94:	75fb      	strb	r3, [r7, #23]
    }

    if (HAL_IS_BIT_CLR(PWR->CR, PWR_CR_DBP))
 8000d96:	4b82      	ldr	r3, [pc, #520]	@ (8000fa0 <HAL_RCC_OscConfig+0x4c8>)
 8000d98:	681b      	ldr	r3, [r3, #0]
 8000d9a:	f403 7380 	and.w	r3, r3, #256	@ 0x100
 8000d9e:	2b00      	cmp	r3, #0
 8000da0:	d118      	bne.n	8000dd4 <HAL_RCC_OscConfig+0x2fc>
    {
      /* Enable write access to Backup domain */
      SET_BIT(PWR->CR, PWR_CR_DBP);
 8000da2:	4b7f      	ldr	r3, [pc, #508]	@ (8000fa0 <HAL_RCC_OscConfig+0x4c8>)
 8000da4:	681b      	ldr	r3, [r3, #0]
 8000da6:	4a7e      	ldr	r2, [pc, #504]	@ (8000fa0 <HAL_RCC_OscConfig+0x4c8>)
 8000da8:	f443 7380 	orr.w	r3, r3, #256	@ 0x100
 8000dac:	6013      	str	r3, [r2, #0]

      /* Wait for Backup domain Write protection disable */
      tickstart = HAL_GetTick();
 8000dae:	f7ff fbfd 	bl	80005ac <HAL_GetTick>
 8000db2:	6138      	str	r0, [r7, #16]

      while (HAL_IS_BIT_CLR(PWR->CR, PWR_CR_DBP))
 8000db4:	e008      	b.n	8000dc8 <HAL_RCC_OscConfig+0x2f0>
      {
        if ((HAL_GetTick() - tickstart) > RCC_DBP_TIMEOUT_VALUE)
 8000db6:	f7ff fbf9 	bl	80005ac <HAL_GetTick>
 8000dba:	4602      	mov	r2, r0
 8000dbc:	693b      	ldr	r3, [r7, #16]
 8000dbe:	1ad3      	subs	r3, r2, r3
 8000dc0:	2b64      	cmp	r3, #100	@ 0x64
 8000dc2:	d901      	bls.n	8000dc8 <HAL_RCC_OscConfig+0x2f0>
        {
          return HAL_TIMEOUT;
 8000dc4:	2303      	movs	r3, #3
 8000dc6:	e103      	b.n	8000fd0 <HAL_RCC_OscConfig+0x4f8>
      while (HAL_IS_BIT_CLR(PWR->CR, PWR_CR_DBP))
 8000dc8:	4b75      	ldr	r3, [pc, #468]	@ (8000fa0 <HAL_RCC_OscConfig+0x4c8>)
 8000dca:	681b      	ldr	r3, [r3, #0]
 8000dcc:	f403 7380 	and.w	r3, r3, #256	@ 0x100
 8000dd0:	2b00      	cmp	r3, #0
 8000dd2:	d0f0      	beq.n	8000db6 <HAL_RCC_OscConfig+0x2de>
        }
      }
    }

    /* Set the new LSE configuration -----------------------------------------*/
    __HAL_RCC_LSE_CONFIG(RCC_OscInitStruct->LSEState);
 8000dd4:	687b      	ldr	r3, [r7, #4]
 8000dd6:	68db      	ldr	r3, [r3, #12]
 8000dd8:	2b01      	cmp	r3, #1
 8000dda:	d106      	bne.n	8000dea <HAL_RCC_OscConfig+0x312>
 8000ddc:	4b6f      	ldr	r3, [pc, #444]	@ (8000f9c <HAL_RCC_OscConfig+0x4c4>)
 8000dde:	6a1b      	ldr	r3, [r3, #32]
 8000de0:	4a6e      	ldr	r2, [pc, #440]	@ (8000f9c <HAL_RCC_OscConfig+0x4c4>)
 8000de2:	f043 0301 	orr.w	r3, r3, #1
 8000de6:	6213      	str	r3, [r2, #32]
 8000de8:	e02d      	b.n	8000e46 <HAL_RCC_OscConfig+0x36e>
 8000dea:	687b      	ldr	r3, [r7, #4]
 8000dec:	68db      	ldr	r3, [r3, #12]
 8000dee:	2b00      	cmp	r3, #0
 8000df0:	d10c      	bne.n	8000e0c <HAL_RCC_OscConfig+0x334>
 8000df2:	4b6a      	ldr	r3, [pc, #424]	@ (8000f9c <HAL_RCC_OscConfig+0x4c4>)
 8000df4:	6a1b      	ldr	r3, [r3, #32]
 8000df6:	4a69      	ldr	r2, [pc, #420]	@ (8000f9c <HAL_RCC_OscConfig+0x4c4>)
 8000df8:	f023 0301 	bic.w	r3, r3, #1
 8000dfc:	6213      	str	r3, [r2, #32]
 8000dfe:	4b67      	ldr	r3, [pc, #412]	@ (8000f9c <HAL_RCC_OscConfig+0x4c4>)
 8000e00:	6a1b      	ldr	r3, [r3, #32]
 8000e02:	4a66      	ldr	r2, [pc, #408]	@ (8000f9c <HAL_RCC_OscConfig+0x4c4>)
 8000e04:	f023 0304 	bic.w	r3, r3, #4
 8000e08:	6213      	str	r3, [r2, #32]
 8000e0a:	e01c      	b.n	8000e46 <HAL_RCC_OscConfig+0x36e>
 8000e0c:	687b      	ldr	r3, [r7, #4]
 8000e0e:	68db      	ldr	r3, [r3, #12]
 8000e10:	2b05      	cmp	r3, #5
 8000e12:	d10c      	bne.n	8000e2e <HAL_RCC_OscConfig+0x356>
 8000e14:	4b61      	ldr	r3, [pc, #388]	@ (8000f9c <HAL_RCC_OscConfig+0x4c4>)
 8000e16:	6a1b      	ldr	r3, [r3, #32]
 8000e18:	4a60      	ldr	r2, [pc, #384]	@ (8000f9c <HAL_RCC_OscConfig+0x4c4>)
 8000e1a:	f043 0304 	orr.w	r3, r3, #4
 8000e1e:	6213      	str	r3, [r2, #32]
 8000e20:	4b5e      	ldr	r3, [pc, #376]	@ (8000f9c <HAL_RCC_OscConfig+0x4c4>)
 8000e22:	6a1b      	ldr	r3, [r3, #32]
 8000e24:	4a5d      	ldr	r2, [pc, #372]	@ (8000f9c <HAL_RCC_OscConfig+0x4c4>)
 8000e26:	f043 0301 	orr.w	r3, r3, #1
 8000e2a:	6213      	str	r3, [r2, #32]
 8000e2c:	e00b      	b.n	8000e46 <HAL_RCC_OscConfig+0x36e>
 8000e2e:	4b5b      	ldr	r3, [pc, #364]	@ (8000f9c <HAL_RCC_OscConfig+0x4c4>)
 8000e30:	6a1b      	ldr	r3, [r3, #32]
 8000e32:	4a5a      	ldr	r2, [pc, #360]	@ (8000f9c <HAL_RCC_OscConfig+0x4c4>)
 8000e34:	f023 0301 	bic.w	r3, r3, #1
 8000e38:	6213      	str	r3, [r2, #32]
 8000e3a:	4b58      	ldr	r3, [pc, #352]	@ (8000f9c <HAL_RCC_OscConfig+0x4c4>)
 8000e3c:	6a1b      	ldr	r3, [r3, #32]
 8000e3e:	4a57      	ldr	r2, [pc, #348]	@ (8000f9c <HAL_RCC_OscConfig+0x4c4>)
 8000e40:	f023 0304 	bic.w	r3, r3, #4
 8000e44:	6213      	str	r3, [r2, #32]
    /* Check the LSE State */
    if (RCC_OscInitStruct->LSEState != RCC_LSE_OFF)
 8000e46:	687b      	ldr	r3, [r7, #4]
 8000e48:	68db      	ldr	r3, [r3, #12]
 8000e4a:	2b00      	cmp	r3, #0
 8000e4c:	d015      	beq.n	8000e7a <HAL_RCC_OscConfig+0x3a2>
    {
      /* Get Start Tick */
      tickstart = HAL_GetTick();
 8000e4e:	f7ff fbad 	bl	80005ac <HAL_GetTick>
 8000e52:	6138      	str	r0, [r7, #16]

      /* Wait till LSE is ready */
      while (__HAL_RCC_GET_FLAG(RCC_FLAG_LSERDY) == RESET)
 8000e54:	e00a      	b.n	8000e6c <HAL_RCC_OscConfig+0x394>
      {
        if ((HAL_GetTick() - tickstart) > RCC_LSE_TIMEOUT_VALUE)
 8000e56:	f7ff fba9 	bl	80005ac <HAL_GetTick>
 8000e5a:	4602      	mov	r2, r0
 8000e5c:	693b      	ldr	r3, [r7, #16]
 8000e5e:	1ad3      	subs	r3, r2, r3
 8000e60:	f241 3288 	movw	r2, #5000	@ 0x1388
 8000e64:	4293      	cmp	r3, r2
 8000e66:	d901      	bls.n	8000e6c <HAL_RCC_OscConfig+0x394>
        {
          return HAL_TIMEOUT;
 8000e68:	2303      	movs	r3, #3
 8000e6a:	e0b1      	b.n	8000fd0 <HAL_RCC_OscConfig+0x4f8>
      while (__HAL_RCC_GET_FLAG(RCC_FLAG_LSERDY) == RESET)
 8000e6c:	4b4b      	ldr	r3, [pc, #300]	@ (8000f9c <HAL_RCC_OscConfig+0x4c4>)
 8000e6e:	6a1b      	ldr	r3, [r3, #32]
 8000e70:	f003 0302 	and.w	r3, r3, #2
 8000e74:	2b00      	cmp	r3, #0
 8000e76:	d0ee      	beq.n	8000e56 <HAL_RCC_OscConfig+0x37e>
 8000e78:	e014      	b.n	8000ea4 <HAL_RCC_OscConfig+0x3cc>
      }
    }
    else
    {
      /* Get Start Tick */
      tickstart = HAL_GetTick();
 8000e7a:	f7ff fb97 	bl	80005ac <HAL_GetTick>
 8000e7e:	6138      	str	r0, [r7, #16]

      /* Wait till LSE is disabled */
      while (__HAL_RCC_GET_FLAG(RCC_FLAG_LSERDY) != RESET)
 8000e80:	e00a      	b.n	8000e98 <HAL_RCC_OscConfig+0x3c0>
      {
        if ((HAL_GetTick() - tickstart) > RCC_LSE_TIMEOUT_VALUE)
 8000e82:	f7ff fb93 	bl	80005ac <HAL_GetTick>
 8000e86:	4602      	mov	r2, r0
 8000e88:	693b      	ldr	r3, [r7, #16]
 8000e8a:	1ad3      	subs	r3, r2, r3
 8000e8c:	f241 3288 	movw	r2, #5000	@ 0x1388
 8000e90:	4293      	cmp	r3, r2
 8000e92:	d901      	bls.n	8000e98 <HAL_RCC_OscConfig+0x3c0>
        {
          return HAL_TIMEOUT;
 8000e94:	2303      	movs	r3, #3
 8000e96:	e09b      	b.n	8000fd0 <HAL_RCC_OscConfig+0x4f8>
      while (__HAL_RCC_GET_FLAG(RCC_FLAG_LSERDY) != RESET)
 8000e98:	4b40      	ldr	r3, [pc, #256]	@ (8000f9c <HAL_RCC_OscConfig+0x4c4>)
 8000e9a:	6a1b      	ldr	r3, [r3, #32]
 8000e9c:	f003 0302 	and.w	r3, r3, #2
 8000ea0:	2b00      	cmp	r3, #0
 8000ea2:	d1ee      	bne.n	8000e82 <HAL_RCC_OscConfig+0x3aa>
        }
      }
    }

    /* Require to disable power clock if necessary */
    if (pwrclkchanged == SET)
 8000ea4:	7dfb      	ldrb	r3, [r7, #23]
 8000ea6:	2b01      	cmp	r3, #1
 8000ea8:	d105      	bne.n	8000eb6 <HAL_RCC_OscConfig+0x3de>
    {
      __HAL_RCC_PWR_CLK_DISABLE();
 8000eaa:	4b3c      	ldr	r3, [pc, #240]	@ (8000f9c <HAL_RCC_OscConfig+0x4c4>)
 8000eac:	69db      	ldr	r3, [r3, #28]
 8000eae:	4a3b      	ldr	r2, [pc, #236]	@ (8000f9c <HAL_RCC_OscConfig+0x4c4>)
 8000eb0:	f023 5380 	bic.w	r3, r3, #268435456	@ 0x10000000
 8000eb4:	61d3      	str	r3, [r2, #28]

#endif /* RCC_CR_PLL2ON */
  /*-------------------------------- PLL Configuration -----------------------*/
  /* Check the parameters */
  assert_param(IS_RCC_PLL(RCC_OscInitStruct->PLL.PLLState));
  if ((RCC_OscInitStruct->PLL.PLLState) != RCC_PLL_NONE)
 8000eb6:	687b      	ldr	r3, [r7, #4]
 8000eb8:	69db      	ldr	r3, [r3, #28]
 8000eba:	2b00      	cmp	r3, #0
 8000ebc:	f000 8087 	beq.w	8000fce <HAL_RCC_OscConfig+0x4f6>
  {
    /* Check if the PLL is used as system clock or not */
    if (__HAL_RCC_GET_SYSCLK_SOURCE() != RCC_SYSCLKSOURCE_STATUS_PLLCLK)
 8000ec0:	4b36      	ldr	r3, [pc, #216]	@ (8000f9c <HAL_RCC_OscConfig+0x4c4>)
 8000ec2:	685b      	ldr	r3, [r3, #4]
 8000ec4:	f003 030c 	and.w	r3, r3, #12
 8000ec8:	2b08      	cmp	r3, #8
 8000eca:	d061      	beq.n	8000f90 <HAL_RCC_OscConfig+0x4b8>
    {
      if ((RCC_OscInitStruct->PLL.PLLState) == RCC_PLL_ON)
 8000ecc:	687b      	ldr	r3, [r7, #4]
 8000ece:	69db      	ldr	r3, [r3, #28]
 8000ed0:	2b02      	cmp	r3, #2
 8000ed2:	d146      	bne.n	8000f62 <HAL_RCC_OscConfig+0x48a>
        /* Check the parameters */
        assert_param(IS_RCC_PLLSOURCE(RCC_OscInitStruct->PLL.PLLSource));
        assert_param(IS_RCC_PLL_MUL(RCC_OscInitStruct->PLL.PLLMUL));

        /* Disable the main PLL. */
        __HAL_RCC_PLL_DISABLE();
 8000ed4:	4b33      	ldr	r3, [pc, #204]	@ (8000fa4 <HAL_RCC_OscConfig+0x4cc>)
 8000ed6:	2200      	movs	r2, #0
 8000ed8:	601a      	str	r2, [r3, #0]

        /* Get Start Tick */
        tickstart = HAL_GetTick();
 8000eda:	f7ff fb67 	bl	80005ac <HAL_GetTick>
 8000ede:	6138      	str	r0, [r7, #16]

        /* Wait till PLL is disabled */
        while (__HAL_RCC_GET_FLAG(RCC_FLAG_PLLRDY)  != RESET)
 8000ee0:	e008      	b.n	8000ef4 <HAL_RCC_OscConfig+0x41c>
        {
          if ((HAL_GetTick() - tickstart) > PLL_TIMEOUT_VALUE)
 8000ee2:	f7ff fb63 	bl	80005ac <HAL_GetTick>
 8000ee6:	4602      	mov	r2, r0
 8000ee8:	693b      	ldr	r3, [r7, #16]
 8000eea:	1ad3      	subs	r3, r2, r3
 8000eec:	2b02      	cmp	r3, #2
 8000eee:	d901      	bls.n	8000ef4 <HAL_RCC_OscConfig+0x41c>
          {
            return HAL_TIMEOUT;
 8000ef0:	2303      	movs	r3, #3
 8000ef2:	e06d      	b.n	8000fd0 <HAL_RCC_OscConfig+0x4f8>
        while (__HAL_RCC_GET_FLAG(RCC_FLAG_PLLRDY)  != RESET)
 8000ef4:	4b29      	ldr	r3, [pc, #164]	@ (8000f9c <HAL_RCC_OscConfig+0x4c4>)
 8000ef6:	681b      	ldr	r3, [r3, #0]
 8000ef8:	f003 7300 	and.w	r3, r3, #33554432	@ 0x2000000
 8000efc:	2b00      	cmp	r3, #0
 8000efe:	d1f0      	bne.n	8000ee2 <HAL_RCC_OscConfig+0x40a>
          }
        }

        /* Configure the HSE prediv factor --------------------------------*/
        /* It can be written only when the PLL is disabled. Not used in PLL source is different than HSE */
        if (RCC_OscInitStruct->PLL.PLLSource == RCC_PLLSOURCE_HSE)
 8000f00:	687b      	ldr	r3, [r7, #4]
 8000f02:	6a1b      	ldr	r3, [r3, #32]
 8000f04:	f5b3 3f80 	cmp.w	r3, #65536	@ 0x10000
 8000f08:	d108      	bne.n	8000f1c <HAL_RCC_OscConfig+0x444>
          /* Set PREDIV1 source */
          SET_BIT(RCC->CFGR2, RCC_OscInitStruct->Prediv1Source);
#endif /* RCC_CFGR2_PREDIV1SRC */

          /* Set PREDIV1 Value */
          __HAL_RCC_HSE_PREDIV_CONFIG(RCC_OscInitStruct->HSEPredivValue);
 8000f0a:	4b24      	ldr	r3, [pc, #144]	@ (8000f9c <HAL_RCC_OscConfig+0x4c4>)
 8000f0c:	685b      	ldr	r3, [r3, #4]
 8000f0e:	f423 3200 	bic.w	r2, r3, #131072	@ 0x20000
 8000f12:	687b      	ldr	r3, [r7, #4]
 8000f14:	689b      	ldr	r3, [r3, #8]
 8000f16:	4921      	ldr	r1, [pc, #132]	@ (8000f9c <HAL_RCC_OscConfig+0x4c4>)
 8000f18:	4313      	orrs	r3, r2
 8000f1a:	604b      	str	r3, [r1, #4]
        }

        /* Configure the main PLL clock source and multiplication factors. */
        __HAL_RCC_PLL_CONFIG(RCC_OscInitStruct->PLL.PLLSource,
 8000f1c:	4b1f      	ldr	r3, [pc, #124]	@ (8000f9c <HAL_RCC_OscConfig+0x4c4>)
 8000f1e:	685b      	ldr	r3, [r3, #4]
 8000f20:	f423 1274 	bic.w	r2, r3, #3997696	@ 0x3d0000
 8000f24:	687b      	ldr	r3, [r7, #4]
 8000f26:	6a19      	ldr	r1, [r3, #32]
 8000f28:	687b      	ldr	r3, [r7, #4]
 8000f2a:	6a5b      	ldr	r3, [r3, #36]	@ 0x24
 8000f2c:	430b      	orrs	r3, r1
 8000f2e:	491b      	ldr	r1, [pc, #108]	@ (8000f9c <HAL_RCC_OscConfig+0x4c4>)
 8000f30:	4313      	orrs	r3, r2
 8000f32:	604b      	str	r3, [r1, #4]
                             RCC_OscInitStruct->PLL.PLLMUL);
        /* Enable the main PLL. */
        __HAL_RCC_PLL_ENABLE();
 8000f34:	4b1b      	ldr	r3, [pc, #108]	@ (8000fa4 <HAL_RCC_OscConfig+0x4cc>)
 8000f36:	2201      	movs	r2, #1
 8000f38:	601a      	str	r2, [r3, #0]

        /* Get Start Tick */
        tickstart = HAL_GetTick();
 8000f3a:	f7ff fb37 	bl	80005ac <HAL_GetTick>
 8000f3e:	6138      	str	r0, [r7, #16]

        /* Wait till PLL is ready */
        while (__HAL_RCC_GET_FLAG(RCC_FLAG_PLLRDY)  == RESET)
 8000f40:	e008      	b.n	8000f54 <HAL_RCC_OscConfig+0x47c>
        {
          if ((HAL_GetTick() - tickstart) > PLL_TIMEOUT_VALUE)
 8000f42:	f7ff fb33 	bl	80005ac <HAL_GetTick>
 8000f46:	4602      	mov	r2, r0
 8000f48:	693b      	ldr	r3, [r7, #16]
 8000f4a:	1ad3      	subs	r3, r2, r3
 8000f4c:	2b02      	cmp	r3, #2
 8000f4e:	d901      	bls.n	8000f54 <HAL_RCC_OscConfig+0x47c>
          {
            return HAL_TIMEOUT;
 8000f50:	2303      	movs	r3, #3
 8000f52:	e03d      	b.n	8000fd0 <HAL_RCC_OscConfig+0x4f8>
        while (__HAL_RCC_GET_FLAG(RCC_FLAG_PLLRDY)  == RESET)
 8000f54:	4b11      	ldr	r3, [pc, #68]	@ (8000f9c <HAL_RCC_OscConfig+0x4c4>)
 8000f56:	681b      	ldr	r3, [r3, #0]
 8000f58:	f003 7300 	and.w	r3, r3, #33554432	@ 0x2000000
 8000f5c:	2b00      	cmp	r3, #0
 8000f5e:	d0f0      	beq.n	8000f42 <HAL_RCC_OscConfig+0x46a>
 8000f60:	e035      	b.n	8000fce <HAL_RCC_OscConfig+0x4f6>
        }
      }
      else
      {
        /* Disable the main PLL. */
        __HAL_RCC_PLL_DISABLE();
 8000f62:	4b10      	ldr	r3, [pc, #64]	@ (8000fa4 <HAL_RCC_OscConfig+0x4cc>)
 8000f64:	2200      	movs	r2, #0
 8000f66:	601a      	str	r2, [r3, #0]

        /* Get Start Tick */
        tickstart = HAL_GetTick();
 8000f68:	f7ff fb20 	bl	80005ac <HAL_GetTick>
 8000f6c:	6138      	str	r0, [r7, #16]

        /* Wait till PLL is disabled */
        while (__HAL_RCC_GET_FLAG(RCC_FLAG_PLLRDY)  != RESET)
 8000f6e:	e008      	b.n	8000f82 <HAL_RCC_OscConfig+0x4aa>
        {
          if ((HAL_GetTick() - tickstart) > PLL_TIMEOUT_VALUE)
 8000f70:	f7ff fb1c 	bl	80005ac <HAL_GetTick>
 8000f74:	4602      	mov	r2, r0
 8000f76:	693b      	ldr	r3, [r7, #16]
 8000f78:	1ad3      	subs	r3, r2, r3
 8000f7a:	2b02      	cmp	r3, #2
 8000f7c:	d901      	bls.n	8000f82 <HAL_RCC_OscConfig+0x4aa>
          {
            return HAL_TIMEOUT;
 8000f7e:	2303      	movs	r3, #3
 8000f80:	e026      	b.n	8000fd0 <HAL_RCC_OscConfig+0x4f8>
        while (__HAL_RCC_GET_FLAG(RCC_FLAG_PLLRDY)  != RESET)
 8000f82:	4b06      	ldr	r3, [pc, #24]	@ (8000f9c <HAL_RCC_OscConfig+0x4c4>)
 8000f84:	681b      	ldr	r3, [r3, #0]
 8000f86:	f003 7300 	and.w	r3, r3, #33554432	@ 0x2000000
 8000f8a:	2b00      	cmp	r3, #0
 8000f8c:	d1f0      	bne.n	8000f70 <HAL_RCC_OscConfig+0x498>
 8000f8e:	e01e      	b.n	8000fce <HAL_RCC_OscConfig+0x4f6>
      }
    }
    else
    {
      /* Check if there is a request to disable the PLL used as System clock source */
      if ((RCC_OscInitStruct->PLL.PLLState) == RCC_PLL_OFF)
 8000f90:	687b      	ldr	r3, [r7, #4]
 8000f92:	69db      	ldr	r3, [r3, #28]
 8000f94:	2b01      	cmp	r3, #1
 8000f96:	d107      	bne.n	8000fa8 <HAL_RCC_OscConfig+0x4d0>
      {
        return HAL_ERROR;
 8000f98:	2301      	movs	r3, #1
 8000f9a:	e019      	b.n	8000fd0 <HAL_RCC_OscConfig+0x4f8>
 8000f9c:	40021000 	.word	0x40021000
 8000fa0:	40007000 	.word	0x40007000
 8000fa4:	42420060 	.word	0x42420060
      }
      else
      {
        /* Do not return HAL_ERROR if request repeats the current configuration */
        pll_config = RCC->CFGR;
 8000fa8:	4b0b      	ldr	r3, [pc, #44]	@ (8000fd8 <HAL_RCC_OscConfig+0x500>)
 8000faa:	685b      	ldr	r3, [r3, #4]
 8000fac:	60fb      	str	r3, [r7, #12]
        if ((READ_BIT(pll_config, RCC_CFGR_PLLSRC) != RCC_OscInitStruct->PLL.PLLSource) ||
 8000fae:	68fb      	ldr	r3, [r7, #12]
 8000fb0:	f403 3280 	and.w	r2, r3, #65536	@ 0x10000
 8000fb4:	687b      	ldr	r3, [r7, #4]
 8000fb6:	6a1b      	ldr	r3, [r3, #32]
 8000fb8:	429a      	cmp	r2, r3
 8000fba:	d106      	bne.n	8000fca <HAL_RCC_OscConfig+0x4f2>
            (READ_BIT(pll_config, RCC_CFGR_PLLMULL) != RCC_OscInitStruct->PLL.PLLMUL))
 8000fbc:	68fb      	ldr	r3, [r7, #12]
 8000fbe:	f403 1270 	and.w	r2, r3, #3932160	@ 0x3c0000
 8000fc2:	687b      	ldr	r3, [r7, #4]
 8000fc4:	6a5b      	ldr	r3, [r3, #36]	@ 0x24
        if ((READ_BIT(pll_config, RCC_CFGR_PLLSRC) != RCC_OscInitStruct->PLL.PLLSource) ||
 8000fc6:	429a      	cmp	r2, r3
 8000fc8:	d001      	beq.n	8000fce <HAL_RCC_OscConfig+0x4f6>
        {
          return HAL_ERROR;
 8000fca:	2301      	movs	r3, #1
 8000fcc:	e000      	b.n	8000fd0 <HAL_RCC_OscConfig+0x4f8>
        }
      }
    }
  }

  return HAL_OK;
 8000fce:	2300      	movs	r3, #0
}
 8000fd0:	4618      	mov	r0, r3
 8000fd2:	3718      	adds	r7, #24
 8000fd4:	46bd      	mov	sp, r7
 8000fd6:	bd80      	pop	{r7, pc}
 8000fd8:	40021000 	.word	0x40021000

08000fdc <HAL_RCC_ClockConfig>:
  *         You can use @ref HAL_RCC_GetClockConfig() function to know which clock is
  *         currently used as system clock source.
  * @retval HAL status
  */
HAL_StatusTypeDef HAL_RCC_ClockConfig(RCC_ClkInitTypeDef  *RCC_ClkInitStruct, uint32_t FLatency)
{
 8000fdc:	b580      	push	{r7, lr}
 8000fde:	b084      	sub	sp, #16
 8000fe0:	af00      	add	r7, sp, #0
 8000fe2:	6078      	str	r0, [r7, #4]
 8000fe4:	6039      	str	r1, [r7, #0]
  uint32_t tickstart;

  /* Check Null pointer */
  if (RCC_ClkInitStruct == NULL)
 8000fe6:	687b      	ldr	r3, [r7, #4]
 8000fe8:	2b00      	cmp	r3, #0
 8000fea:	d101      	bne.n	8000ff0 <HAL_RCC_ClockConfig+0x14>
  {
    return HAL_ERROR;
 8000fec:	2301      	movs	r3, #1
 8000fee:	e0d0      	b.n	8001192 <HAL_RCC_ClockConfig+0x1b6>
  must be correctly programmed according to the frequency of the CPU clock
    (HCLK) of the device. */

#if defined(FLASH_ACR_LATENCY)
  /* Increasing the number of wait states because of higher CPU frequency */
  if (FLatency > __HAL_FLASH_GET_LATENCY())
 8000ff0:	4b6a      	ldr	r3, [pc, #424]	@ (800119c <HAL_RCC_ClockConfig+0x1c0>)
 8000ff2:	681b      	ldr	r3, [r3, #0]
 8000ff4:	f003 0307 	and.w	r3, r3, #7
 8000ff8:	683a      	ldr	r2, [r7, #0]
 8000ffa:	429a      	cmp	r2, r3
 8000ffc:	d910      	bls.n	8001020 <HAL_RCC_ClockConfig+0x44>
  {
    /* Program the new number of wait states to the LATENCY bits in the FLASH_ACR register */
    __HAL_FLASH_SET_LATENCY(FLatency);
 8000ffe:	4b67      	ldr	r3, [pc, #412]	@ (800119c <HAL_RCC_ClockConfig+0x1c0>)
 8001000:	681b      	ldr	r3, [r3, #0]
 8001002:	f023 0207 	bic.w	r2, r3, #7
 8001006:	4965      	ldr	r1, [pc, #404]	@ (800119c <HAL_RCC_ClockConfig+0x1c0>)
 8001008:	683b      	ldr	r3, [r7, #0]
 800100a:	4313      	orrs	r3, r2
 800100c:	600b      	str	r3, [r1, #0]

    /* Check that the new number of wait states is taken into account to access the Flash
    memory by reading the FLASH_ACR register */
    if (__HAL_FLASH_GET_LATENCY() != FLatency)
 800100e:	4b63      	ldr	r3, [pc, #396]	@ (800119c <HAL_RCC_ClockConfig+0x1c0>)
 8001010:	681b      	ldr	r3, [r3, #0]
 8001012:	f003 0307 	and.w	r3, r3, #7
 8001016:	683a      	ldr	r2, [r7, #0]
 8001018:	429a      	cmp	r2, r3
 800101a:	d001      	beq.n	8001020 <HAL_RCC_ClockConfig+0x44>
  {
    return HAL_ERROR;
 800101c:	2301      	movs	r3, #1
 800101e:	e0b8      	b.n	8001192 <HAL_RCC_ClockConfig+0x1b6>
  }
}

#endif /* FLASH_ACR_LATENCY */
/*-------------------------- HCLK Configuration --------------------------*/
if (((RCC_ClkInitStruct->ClockType) & RCC_CLOCKTYPE_HCLK) == RCC_CLOCKTYPE_HCLK)
 8001020:	687b      	ldr	r3, [r7, #4]
 8001022:	681b      	ldr	r3, [r3, #0]
 8001024:	f003 0302 	and.w	r3, r3, #2
 8001028:	2b00      	cmp	r3, #0
 800102a:	d020      	beq.n	800106e <HAL_RCC_ClockConfig+0x92>
  {
    /* Set the highest APBx dividers in order to ensure that we do not go through
    a non-spec phase whatever we decrease or increase HCLK. */
    if (((RCC_ClkInitStruct->ClockType) & RCC_CLOCKTYPE_PCLK1) == RCC_CLOCKTYPE_PCLK1)
 800102c:	687b      	ldr	r3, [r7, #4]
 800102e:	681b      	ldr	r3, [r3, #0]
 8001030:	f003 0304 	and.w	r3, r3, #4
 8001034:	2b00      	cmp	r3, #0
 8001036:	d005      	beq.n	8001044 <HAL_RCC_ClockConfig+0x68>
    {
      MODIFY_REG(RCC->CFGR, RCC_CFGR_PPRE1, RCC_HCLK_DIV16);
 8001038:	4b59      	ldr	r3, [pc, #356]	@ (80011a0 <HAL_RCC_ClockConfig+0x1c4>)
 800103a:	685b      	ldr	r3, [r3, #4]
 800103c:	4a58      	ldr	r2, [pc, #352]	@ (80011a0 <HAL_RCC_ClockConfig+0x1c4>)
 800103e:	f443 63e0 	orr.w	r3, r3, #1792	@ 0x700
 8001042:	6053      	str	r3, [r2, #4]
    }

    if (((RCC_ClkInitStruct->ClockType) & RCC_CLOCKTYPE_PCLK2) == RCC_CLOCKTYPE_PCLK2)
 8001044:	687b      	ldr	r3, [r7, #4]
 8001046:	681b      	ldr	r3, [r3, #0]
 8001048:	f003 0308 	and.w	r3, r3, #8
 800104c:	2b00      	cmp	r3, #0
 800104e:	d005      	beq.n	800105c <HAL_RCC_ClockConfig+0x80>
    {
      MODIFY_REG(RCC->CFGR, RCC_CFGR_PPRE2, (RCC_HCLK_DIV16 << 3));
 8001050:	4b53      	ldr	r3, [pc, #332]	@ (80011a0 <HAL_RCC_ClockConfig+0x1c4>)
 8001052:	685b      	ldr	r3, [r3, #4]
 8001054:	4a52      	ldr	r2, [pc, #328]	@ (80011a0 <HAL_RCC_ClockConfig+0x1c4>)
 8001056:	f443 5360 	orr.w	r3, r3, #14336	@ 0x3800
 800105a:	6053      	str	r3, [r2, #4]
    }

    /* Set the new HCLK clock divider */
    assert_param(IS_RCC_HCLK(RCC_ClkInitStruct->AHBCLKDivider));
    MODIFY_REG(RCC->CFGR, RCC_CFGR_HPRE, RCC_ClkInitStruct->AHBCLKDivider);
 800105c:	4b50      	ldr	r3, [pc, #320]	@ (80011a0 <HAL_RCC_ClockConfig+0x1c4>)
 800105e:	685b      	ldr	r3, [r3, #4]
 8001060:	f023 02f0 	bic.w	r2, r3, #240	@ 0xf0
 8001064:	687b      	ldr	r3, [r7, #4]
 8001066:	689b      	ldr	r3, [r3, #8]
 8001068:	494d      	ldr	r1, [pc, #308]	@ (80011a0 <HAL_RCC_ClockConfig+0x1c4>)
 800106a:	4313      	orrs	r3, r2
 800106c:	604b      	str	r3, [r1, #4]
  }

  /*------------------------- SYSCLK Configuration ---------------------------*/
  if (((RCC_ClkInitStruct->ClockType) & RCC_CLOCKTYPE_SYSCLK) == RCC_CLOCKTYPE_SYSCLK)
 800106e:	687b      	ldr	r3, [r7, #4]
 8001070:	681b      	ldr	r3, [r3, #0]
 8001072:	f003 0301 	and.w	r3, r3, #1
 8001076:	2b00      	cmp	r3, #0
 8001078:	d040      	beq.n	80010fc <HAL_RCC_ClockConfig+0x120>
  {
    assert_param(IS_RCC_SYSCLKSOURCE(RCC_ClkInitStruct->SYSCLKSource));

    /* HSE is selected as System Clock Source */
    if (RCC_ClkInitStruct->SYSCLKSource == RCC_SYSCLKSOURCE_HSE)
 800107a:	687b      	ldr	r3, [r7, #4]
 800107c:	685b      	ldr	r3, [r3, #4]
 800107e:	2b01      	cmp	r3, #1
 8001080:	d107      	bne.n	8001092 <HAL_RCC_ClockConfig+0xb6>
    {
      /* Check the HSE ready flag */
      if (__HAL_RCC_GET_FLAG(RCC_FLAG_HSERDY) == RESET)
 8001082:	4b47      	ldr	r3, [pc, #284]	@ (80011a0 <HAL_RCC_ClockConfig+0x1c4>)
 8001084:	681b      	ldr	r3, [r3, #0]
 8001086:	f403 3300 	and.w	r3, r3, #131072	@ 0x20000
 800108a:	2b00      	cmp	r3, #0
 800108c:	d115      	bne.n	80010ba <HAL_RCC_ClockConfig+0xde>
      {
        return HAL_ERROR;
 800108e:	2301      	movs	r3, #1
 8001090:	e07f      	b.n	8001192 <HAL_RCC_ClockConfig+0x1b6>
      }
    }
    /* PLL is selected as System Clock Source */
    else if (RCC_ClkInitStruct->SYSCLKSource == RCC_SYSCLKSOURCE_PLLCLK)
 8001092:	687b      	ldr	r3, [r7, #4]
 8001094:	685b      	ldr	r3, [r3, #4]
 8001096:	2b02      	cmp	r3, #2
 8001098:	d107      	bne.n	80010aa <HAL_RCC_ClockConfig+0xce>
    {
      /* Check the PLL ready flag */
      if (__HAL_RCC_GET_FLAG(RCC_FLAG_PLLRDY) == RESET)
 800109a:	4b41      	ldr	r3, [pc, #260]	@ (80011a0 <HAL_RCC_ClockConfig+0x1c4>)
 800109c:	681b      	ldr	r3, [r3, #0]
 800109e:	f003 7300 	and.w	r3, r3, #33554432	@ 0x2000000
 80010a2:	2b00      	cmp	r3, #0
 80010a4:	d109      	bne.n	80010ba <HAL_RCC_ClockConfig+0xde>
      {
        return HAL_ERROR;
 80010a6:	2301      	movs	r3, #1
 80010a8:	e073      	b.n	8001192 <HAL_RCC_ClockConfig+0x1b6>
    }
    /* HSI is selected as System Clock Source */
    else
    {
      /* Check the HSI ready flag */
      if (__HAL_RCC_GET_FLAG(RCC_FLAG_HSIRDY) == RESET)
 80010aa:	4b3d      	ldr	r3, [pc, #244]	@ (80011a0 <HAL_RCC_ClockConfig+0x1c4>)
 80010ac:	681b      	ldr	r3, [r3, #0]
 80010ae:	f003 0302 	and.w	r3, r3, #2
 80010b2:	2b00      	cmp	r3, #0
 80010b4:	d101      	bne.n	80010ba <HAL_RCC_ClockConfig+0xde>
      {
        return HAL_ERROR;
 80010b6:	2301      	movs	r3, #1
 80010b8:	e06b      	b.n	8001192 <HAL_RCC_ClockConfig+0x1b6>
      }
    }
    __HAL_RCC_SYSCLK_CONFIG(RCC_ClkInitStruct->SYSCLKSource);
 80010ba:	4b39      	ldr	r3, [pc, #228]	@ (80011a0 <HAL_RCC_ClockConfig+0x1c4>)
 80010bc:	685b      	ldr	r3, [r3, #4]
 80010be:	f023 0203 	bic.w	r2, r3, #3
 80010c2:	687b      	ldr	r3, [r7, #4]
 80010c4:	685b      	ldr	r3, [r3, #4]
 80010c6:	4936      	ldr	r1, [pc, #216]	@ (80011a0 <HAL_RCC_ClockConfig+0x1c4>)
 80010c8:	4313      	orrs	r3, r2
 80010ca:	604b      	str	r3, [r1, #4]

    /* Get Start Tick */
    tickstart = HAL_GetTick();
 80010cc:	f7ff fa6e 	bl	80005ac <HAL_GetTick>
 80010d0:	60f8      	str	r0, [r7, #12]

    while (__HAL_RCC_GET_SYSCLK_SOURCE() != (RCC_ClkInitStruct->SYSCLKSource << RCC_CFGR_SWS_Pos))
 80010d2:	e00a      	b.n	80010ea <HAL_RCC_ClockConfig+0x10e>
    {
      if ((HAL_GetTick() - tickstart) > CLOCKSWITCH_TIMEOUT_VALUE)
 80010d4:	f7ff fa6a 	bl	80005ac <HAL_GetTick>
 80010d8:	4602      	mov	r2, r0
 80010da:	68fb      	ldr	r3, [r7, #12]
 80010dc:	1ad3      	subs	r3, r2, r3
 80010de:	f241 3288 	movw	r2, #5000	@ 0x1388
 80010e2:	4293      	cmp	r3, r2
 80010e4:	d901      	bls.n	80010ea <HAL_RCC_ClockConfig+0x10e>
      {
        return HAL_TIMEOUT;
 80010e6:	2303      	movs	r3, #3
 80010e8:	e053      	b.n	8001192 <HAL_RCC_ClockConfig+0x1b6>
    while (__HAL_RCC_GET_SYSCLK_SOURCE() != (RCC_ClkInitStruct->SYSCLKSource << RCC_CFGR_SWS_Pos))
 80010ea:	4b2d      	ldr	r3, [pc, #180]	@ (80011a0 <HAL_RCC_ClockConfig+0x1c4>)
 80010ec:	685b      	ldr	r3, [r3, #4]
 80010ee:	f003 020c 	and.w	r2, r3, #12
 80010f2:	687b      	ldr	r3, [r7, #4]
 80010f4:	685b      	ldr	r3, [r3, #4]
 80010f6:	009b      	lsls	r3, r3, #2
 80010f8:	429a      	cmp	r2, r3
 80010fa:	d1eb      	bne.n	80010d4 <HAL_RCC_ClockConfig+0xf8>
    }
  }

#if defined(FLASH_ACR_LATENCY)
  /* Decreasing the number of wait states because of lower CPU frequency */
  if (FLatency < __HAL_FLASH_GET_LATENCY())
 80010fc:	4b27      	ldr	r3, [pc, #156]	@ (800119c <HAL_RCC_ClockConfig+0x1c0>)
 80010fe:	681b      	ldr	r3, [r3, #0]
 8001100:	f003 0307 	and.w	r3, r3, #7
 8001104:	683a      	ldr	r2, [r7, #0]
 8001106:	429a      	cmp	r2, r3
 8001108:	d210      	bcs.n	800112c <HAL_RCC_ClockConfig+0x150>
  {
    /* Program the new number of wait states to the LATENCY bits in the FLASH_ACR register */
    __HAL_FLASH_SET_LATENCY(FLatency);
 800110a:	4b24      	ldr	r3, [pc, #144]	@ (800119c <HAL_RCC_ClockConfig+0x1c0>)
 800110c:	681b      	ldr	r3, [r3, #0]
 800110e:	f023 0207 	bic.w	r2, r3, #7
 8001112:	4922      	ldr	r1, [pc, #136]	@ (800119c <HAL_RCC_ClockConfig+0x1c0>)
 8001114:	683b      	ldr	r3, [r7, #0]
 8001116:	4313      	orrs	r3, r2
 8001118:	600b      	str	r3, [r1, #0]

    /* Check that the new number of wait states is taken into account to access the Flash
    memory by reading the FLASH_ACR register */
    if (__HAL_FLASH_GET_LATENCY() != FLatency)
 800111a:	4b20      	ldr	r3, [pc, #128]	@ (800119c <HAL_RCC_ClockConfig+0x1c0>)
 800111c:	681b      	ldr	r3, [r3, #0]
 800111e:	f003 0307 	and.w	r3, r3, #7
 8001122:	683a      	ldr	r2, [r7, #0]
 8001124:	429a      	cmp	r2, r3
 8001126:	d001      	beq.n	800112c <HAL_RCC_ClockConfig+0x150>
  {
    return HAL_ERROR;
 8001128:	2301      	movs	r3, #1
 800112a:	e032      	b.n	8001192 <HAL_RCC_ClockConfig+0x1b6>
  }
}
#endif /* FLASH_ACR_LATENCY */

/*-------------------------- PCLK1 Configuration ---------------------------*/
if (((RCC_ClkInitStruct->ClockType) & RCC_CLOCKTYPE_PCLK1) == RCC_CLOCKTYPE_PCLK1)
 800112c:	687b      	ldr	r3, [r7, #4]
 800112e:	681b      	ldr	r3, [r3, #0]
 8001130:	f003 0304 	and.w	r3, r3, #4
 8001134:	2b00      	cmp	r3, #0
 8001136:	d008      	beq.n	800114a <HAL_RCC_ClockConfig+0x16e>
  {
    assert_param(IS_RCC_PCLK(RCC_ClkInitStruct->APB1CLKDivider));
    MODIFY_REG(RCC->CFGR, RCC_CFGR_PPRE1, RCC_ClkInitStruct->APB1CLKDivider);
 8001138:	4b19      	ldr	r3, [pc, #100]	@ (80011a0 <HAL_RCC_ClockConfig+0x1c4>)
 800113a:	685b      	ldr	r3, [r3, #4]
 800113c:	f423 62e0 	bic.w	r2, r3, #1792	@ 0x700
 8001140:	687b      	ldr	r3, [r7, #4]
 8001142:	68db      	ldr	r3, [r3, #12]
 8001144:	4916      	ldr	r1, [pc, #88]	@ (80011a0 <HAL_RCC_ClockConfig+0x1c4>)
 8001146:	4313      	orrs	r3, r2
 8001148:	604b      	str	r3, [r1, #4]
  }

  /*-------------------------- PCLK2 Configuration ---------------------------*/
  if (((RCC_ClkInitStruct->ClockType) & RCC_CLOCKTYPE_PCLK2) == RCC_CLOCKTYPE_PCLK2)
 800114a:	687b      	ldr	r3, [r7, #4]
 800114c:	681b      	ldr	r3, [r3, #0]
 800114e:	f003 0308 	and.w	r3, r3, #8
 8001152:	2b00      	cmp	r3, #0
 8001154:	d009      	beq.n	800116a <HAL_RCC_ClockConfig+0x18e>
  {
    assert_param(IS_RCC_PCLK(RCC_ClkInitStruct->APB2CLKDivider));
    MODIFY_REG(RCC->CFGR, RCC_CFGR_PPRE2, ((RCC_ClkInitStruct->APB2CLKDivider) << 3));
 8001156:	4b12      	ldr	r3, [pc, #72]	@ (80011a0 <HAL_RCC_ClockConfig+0x1c4>)
 8001158:	685b      	ldr	r3, [r3, #4]
 800115a:	f423 5260 	bic.w	r2, r3, #14336	@ 0x3800
 800115e:	687b      	ldr	r3, [r7, #4]
 8001160:	691b      	ldr	r3, [r3, #16]
 8001162:	00db      	lsls	r3, r3, #3
 8001164:	490e      	ldr	r1, [pc, #56]	@ (80011a0 <HAL_RCC_ClockConfig+0x1c4>)
 8001166:	4313      	orrs	r3, r2
 8001168:	604b      	str	r3, [r1, #4]
  }

  /* Update the SystemCoreClock global variable */
  SystemCoreClock = HAL_RCC_GetSysClockFreq() >> AHBPrescTable[(RCC->CFGR & RCC_CFGR_HPRE) >> RCC_CFGR_HPRE_Pos];
 800116a:	f000 f821 	bl	80011b0 <HAL_RCC_GetSysClockFreq>
 800116e:	4602      	mov	r2, r0
 8001170:	4b0b      	ldr	r3, [pc, #44]	@ (80011a0 <HAL_RCC_ClockConfig+0x1c4>)
 8001172:	685b      	ldr	r3, [r3, #4]
 8001174:	091b      	lsrs	r3, r3, #4
 8001176:	f003 030f 	and.w	r3, r3, #15
 800117a:	490a      	ldr	r1, [pc, #40]	@ (80011a4 <HAL_RCC_ClockConfig+0x1c8>)
 800117c:	5ccb      	ldrb	r3, [r1, r3]
 800117e:	fa22 f303 	lsr.w	r3, r2, r3
 8001182:	4a09      	ldr	r2, [pc, #36]	@ (80011a8 <HAL_RCC_ClockConfig+0x1cc>)
 8001184:	6013      	str	r3, [r2, #0]

  /* Configure the source of time base considering new system clocks settings*/
  HAL_InitTick(uwTickPrio);
 8001186:	4b09      	ldr	r3, [pc, #36]	@ (80011ac <HAL_RCC_ClockConfig+0x1d0>)
 8001188:	681b      	ldr	r3, [r3, #0]
 800118a:	4618      	mov	r0, r3
 800118c:	f7ff f9cc 	bl	8000528 <HAL_InitTick>

  return HAL_OK;
 8001190:	2300      	movs	r3, #0
}
 8001192:	4618      	mov	r0, r3
 8001194:	3710      	adds	r7, #16
 8001196:	46bd      	mov	sp, r7
 8001198:	bd80      	pop	{r7, pc}
 800119a:	bf00      	nop
 800119c:	40022000 	.word	0x40022000
 80011a0:	40021000 	.word	0x40021000
 80011a4:	080020d8 	.word	0x080020d8
 80011a8:	20000000 	.word	0x20000000
 80011ac:	20000004 	.word	0x20000004

080011b0 <HAL_RCC_GetSysClockFreq>:
  *         right SYSCLK value. Otherwise, any configuration based on this function will be incorrect.
  *
  * @retval SYSCLK frequency
  */
uint32_t HAL_RCC_GetSysClockFreq(void)
{
 80011b0:	b480      	push	{r7}
 80011b2:	b087      	sub	sp, #28
 80011b4:	af00      	add	r7, sp, #0
#else
  static const uint8_t aPredivFactorTable[2U] = {1, 2};
#endif /*RCC_CFGR2_PREDIV1*/

#endif
  uint32_t tmpreg = 0U, prediv = 0U, pllclk = 0U, pllmul = 0U;
 80011b6:	2300      	movs	r3, #0
 80011b8:	60fb      	str	r3, [r7, #12]
 80011ba:	2300      	movs	r3, #0
 80011bc:	60bb      	str	r3, [r7, #8]
 80011be:	2300      	movs	r3, #0
 80011c0:	617b      	str	r3, [r7, #20]
 80011c2:	2300      	movs	r3, #0
 80011c4:	607b      	str	r3, [r7, #4]
  uint32_t sysclockfreq = 0U;
 80011c6:	2300      	movs	r3, #0
 80011c8:	613b      	str	r3, [r7, #16]
#if defined(RCC_CFGR2_PREDIV1SRC)
  uint32_t prediv2 = 0U, pll2mul = 0U;
#endif /*RCC_CFGR2_PREDIV1SRC*/

  tmpreg = RCC->CFGR;
 80011ca:	4b1e      	ldr	r3, [pc, #120]	@ (8001244 <HAL_RCC_GetSysClockFreq+0x94>)
 80011cc:	685b      	ldr	r3, [r3, #4]
 80011ce:	60fb      	str	r3, [r7, #12]

  /* Get SYSCLK source -------------------------------------------------------*/
  switch (tmpreg & RCC_CFGR_SWS)
 80011d0:	68fb      	ldr	r3, [r7, #12]
 80011d2:	f003 030c 	and.w	r3, r3, #12
 80011d6:	2b04      	cmp	r3, #4
 80011d8:	d002      	beq.n	80011e0 <HAL_RCC_GetSysClockFreq+0x30>
 80011da:	2b08      	cmp	r3, #8
 80011dc:	d003      	beq.n	80011e6 <HAL_RCC_GetSysClockFreq+0x36>
 80011de:	e027      	b.n	8001230 <HAL_RCC_GetSysClockFreq+0x80>
  {
    case RCC_SYSCLKSOURCE_STATUS_HSE:  /* HSE used as system clock */
    {
      sysclockfreq = HSE_VALUE;
 80011e0:	4b19      	ldr	r3, [pc, #100]	@ (8001248 <HAL_RCC_GetSysClockFreq+0x98>)
 80011e2:	613b      	str	r3, [r7, #16]
      break;
 80011e4:	e027      	b.n	8001236 <HAL_RCC_GetSysClockFreq+0x86>
    }
    case RCC_SYSCLKSOURCE_STATUS_PLLCLK:  /* PLL used as system clock */
    {
      pllmul = aPLLMULFactorTable[(uint32_t)(tmpreg & RCC_CFGR_PLLMULL) >> RCC_CFGR_PLLMULL_Pos];
 80011e6:	68fb      	ldr	r3, [r7, #12]
 80011e8:	0c9b      	lsrs	r3, r3, #18
 80011ea:	f003 030f 	and.w	r3, r3, #15
 80011ee:	4a17      	ldr	r2, [pc, #92]	@ (800124c <HAL_RCC_GetSysClockFreq+0x9c>)
 80011f0:	5cd3      	ldrb	r3, [r2, r3]
 80011f2:	607b      	str	r3, [r7, #4]
      if ((tmpreg & RCC_CFGR_PLLSRC) != RCC_PLLSOURCE_HSI_DIV2)
 80011f4:	68fb      	ldr	r3, [r7, #12]
 80011f6:	f403 3380 	and.w	r3, r3, #65536	@ 0x10000
 80011fa:	2b00      	cmp	r3, #0
 80011fc:	d010      	beq.n	8001220 <HAL_RCC_GetSysClockFreq+0x70>
      {
#if defined(RCC_CFGR2_PREDIV1)
        prediv = aPredivFactorTable[(uint32_t)(RCC->CFGR2 & RCC_CFGR2_PREDIV1) >> RCC_CFGR2_PREDIV1_Pos];
#else
        prediv = aPredivFactorTable[(uint32_t)(RCC->CFGR & RCC_CFGR_PLLXTPRE) >> RCC_CFGR_PLLXTPRE_Pos];
 80011fe:	4b11      	ldr	r3, [pc, #68]	@ (8001244 <HAL_RCC_GetSysClockFreq+0x94>)
 8001200:	685b      	ldr	r3, [r3, #4]
 8001202:	0c5b      	lsrs	r3, r3, #17
 8001204:	f003 0301 	and.w	r3, r3, #1
 8001208:	4a11      	ldr	r2, [pc, #68]	@ (8001250 <HAL_RCC_GetSysClockFreq+0xa0>)
 800120a:	5cd3      	ldrb	r3, [r2, r3]
 800120c:	60bb      	str	r3, [r7, #8]
        {
          pllclk = pllclk / 2;
        }
#else
        /* HSE used as PLL clock source : PLLCLK = HSE/PREDIV1 * PLLMUL */
        pllclk = (uint32_t)((HSE_VALUE  * pllmul) / prediv);
 800120e:	687b      	ldr	r3, [r7, #4]
 8001210:	4a0d      	ldr	r2, [pc, #52]	@ (8001248 <HAL_RCC_GetSysClockFreq+0x98>)
 8001212:	fb03 f202 	mul.w	r2, r3, r2
 8001216:	68bb      	ldr	r3, [r7, #8]
 8001218:	fbb2 f3f3 	udiv	r3, r2, r3
 800121c:	617b      	str	r3, [r7, #20]
 800121e:	e004      	b.n	800122a <HAL_RCC_GetSysClockFreq+0x7a>
#endif /*RCC_CFGR2_PREDIV1SRC*/
      }
      else
      {
        /* HSI used as PLL clock source : PLLCLK = HSI/2 * PLLMUL */
        pllclk = (uint32_t)((HSI_VALUE >> 1) * pllmul);
 8001220:	687b      	ldr	r3, [r7, #4]
 8001222:	4a0c      	ldr	r2, [pc, #48]	@ (8001254 <HAL_RCC_GetSysClockFreq+0xa4>)
 8001224:	fb02 f303 	mul.w	r3, r2, r3
 8001228:	617b      	str	r3, [r7, #20]
      }
      sysclockfreq = pllclk;
 800122a:	697b      	ldr	r3, [r7, #20]
 800122c:	613b      	str	r3, [r7, #16]
      break;
 800122e:	e002      	b.n	8001236 <HAL_RCC_GetSysClockFreq+0x86>
    }
    case RCC_SYSCLKSOURCE_STATUS_HSI:  /* HSI used as system clock source */
    default: /* HSI used as system clock */
    {
      sysclockfreq = HSI_VALUE;
 8001230:	4b05      	ldr	r3, [pc, #20]	@ (8001248 <HAL_RCC_GetSysClockFreq+0x98>)
 8001232:	613b      	str	r3, [r7, #16]
      break;
 8001234:	bf00      	nop
    }
  }
  return sysclockfreq;
 8001236:	693b      	ldr	r3, [r7, #16]
}
 8001238:	4618      	mov	r0, r3
 800123a:	371c      	adds	r7, #28
 800123c:	46bd      	mov	sp, r7
 800123e:	bc80      	pop	{r7}
 8001240:	4770      	bx	lr
 8001242:	bf00      	nop
 8001244:	40021000 	.word	0x40021000
 8001248:	007a1200 	.word	0x007a1200
 800124c:	080020f0 	.word	0x080020f0
 8001250:	08002100 	.word	0x08002100
 8001254:	003d0900 	.word	0x003d0900

08001258 <HAL_RCC_GetHCLKFreq>:
  * @note   The SystemCoreClock CMSIS variable is used to store System Clock Frequency
  *         and updated within this function
  * @retval HCLK frequency
  */
uint32_t HAL_RCC_GetHCLKFreq(void)
{
 8001258:	b480      	push	{r7}
 800125a:	af00      	add	r7, sp, #0
  return SystemCoreClock;
 800125c:	4b02      	ldr	r3, [pc, #8]	@ (8001268 <HAL_RCC_GetHCLKFreq+0x10>)
 800125e:	681b      	ldr	r3, [r3, #0]
}
 8001260:	4618      	mov	r0, r3
 8001262:	46bd      	mov	sp, r7
 8001264:	bc80      	pop	{r7}
 8001266:	4770      	bx	lr
 8001268:	20000000 	.word	0x20000000

0800126c <HAL_RCC_GetPCLK1Freq>:
  * @note   Each time PCLK1 changes, this function must be called to update the
  *         right PCLK1 value. Otherwise, any configuration based on this function will be incorrect.
  * @retval PCLK1 frequency
  */
uint32_t HAL_RCC_GetPCLK1Freq(void)
{
 800126c:	b580      	push	{r7, lr}
 800126e:	af00      	add	r7, sp, #0
  /* Get HCLK source and Compute PCLK1 frequency ---------------------------*/
  return (HAL_RCC_GetHCLKFreq() >> APBPrescTable[(RCC->CFGR & RCC_CFGR_PPRE1) >> RCC_CFGR_PPRE1_Pos]);
 8001270:	f7ff fff2 	bl	8001258 <HAL_RCC_GetHCLKFreq>
 8001274:	4602      	mov	r2, r0
 8001276:	4b05      	ldr	r3, [pc, #20]	@ (800128c <HAL_RCC_GetPCLK1Freq+0x20>)
 8001278:	685b      	ldr	r3, [r3, #4]
 800127a:	0a1b      	lsrs	r3, r3, #8
 800127c:	f003 0307 	and.w	r3, r3, #7
 8001280:	4903      	ldr	r1, [pc, #12]	@ (8001290 <HAL_RCC_GetPCLK1Freq+0x24>)
 8001282:	5ccb      	ldrb	r3, [r1, r3]
 8001284:	fa22 f303 	lsr.w	r3, r2, r3
}
 8001288:	4618      	mov	r0, r3
 800128a:	bd80      	pop	{r7, pc}
 800128c:	40021000 	.word	0x40021000
 8001290:	080020e8 	.word	0x080020e8

08001294 <HAL_RCC_GetPCLK2Freq>:
  * @note   Each time PCLK2 changes, this function must be called to update the
  *         right PCLK2 value. Otherwise, any configuration based on this function will be incorrect.
  * @retval PCLK2 frequency
  */
uint32_t HAL_RCC_GetPCLK2Freq(void)
{
 8001294:	b580      	push	{r7, lr}
 8001296:	af00      	add	r7, sp, #0
  /* Get HCLK source and Compute PCLK2 frequency ---------------------------*/
  return (HAL_RCC_GetHCLKFreq() >> APBPrescTable[(RCC->CFGR & RCC_CFGR_PPRE2) >> RCC_CFGR_PPRE2_Pos]);
 8001298:	f7ff ffde 	bl	8001258 <HAL_RCC_GetHCLKFreq>
 800129c:	4602      	mov	r2, r0
 800129e:	4b05      	ldr	r3, [pc, #20]	@ (80012b4 <HAL_RCC_GetPCLK2Freq+0x20>)
 80012a0:	685b      	ldr	r3, [r3, #4]
 80012a2:	0adb      	lsrs	r3, r3, #11
 80012a4:	f003 0307 	and.w	r3, r3, #7
 80012a8:	4903      	ldr	r1, [pc, #12]	@ (80012b8 <HAL_RCC_GetPCLK2Freq+0x24>)
 80012aa:	5ccb      	ldrb	r3, [r1, r3]
 80012ac:	fa22 f303 	lsr.w	r3, r2, r3
}
 80012b0:	4618      	mov	r0, r3
 80012b2:	bd80      	pop	{r7, pc}
 80012b4:	40021000 	.word	0x40021000
 80012b8:	080020e8 	.word	0x080020e8

080012bc <RCC_Delay>:
  * @brief  This function provides delay (in milliseconds) based on CPU cycles method.
  * @param  mdelay: specifies the delay time length, in milliseconds.
  * @retval None
  */
static void RCC_Delay(uint32_t mdelay)
{
 80012bc:	b480      	push	{r7}
 80012be:	b085      	sub	sp, #20
 80012c0:	af00      	add	r7, sp, #0
 80012c2:	6078      	str	r0, [r7, #4]
  __IO uint32_t Delay = mdelay * (SystemCoreClock / 8U / 1000U);
 80012c4:	4b0a      	ldr	r3, [pc, #40]	@ (80012f0 <RCC_Delay+0x34>)
 80012c6:	681b      	ldr	r3, [r3, #0]
 80012c8:	4a0a      	ldr	r2, [pc, #40]	@ (80012f4 <RCC_Delay+0x38>)
 80012ca:	fba2 2303 	umull	r2, r3, r2, r3
 80012ce:	0a5b      	lsrs	r3, r3, #9
 80012d0:	687a      	ldr	r2, [r7, #4]
 80012d2:	fb02 f303 	mul.w	r3, r2, r3
 80012d6:	60fb      	str	r3, [r7, #12]
  do
  {
    __NOP();
 80012d8:	bf00      	nop
  }
  while (Delay --);
 80012da:	68fb      	ldr	r3, [r7, #12]
 80012dc:	1e5a      	subs	r2, r3, #1
 80012de:	60fa      	str	r2, [r7, #12]
 80012e0:	2b00      	cmp	r3, #0
 80012e2:	d1f9      	bne.n	80012d8 <RCC_Delay+0x1c>
}
 80012e4:	bf00      	nop
 80012e6:	bf00      	nop
 80012e8:	3714      	adds	r7, #20
 80012ea:	46bd      	mov	sp, r7
 80012ec:	bc80      	pop	{r7}
 80012ee:	4770      	bx	lr
 80012f0:	20000000 	.word	0x20000000
 80012f4:	10624dd3 	.word	0x10624dd3

080012f8 <HAL_UART_Init>:
  * @param  huart  Pointer to a UART_HandleTypeDef structure that contains
  *                the configuration information for the specified UART module.
  * @retval HAL status
  */
HAL_StatusTypeDef HAL_UART_Init(UART_HandleTypeDef *huart)
{
 80012f8:	b580      	push	{r7, lr}
 80012fa:	b082      	sub	sp, #8
 80012fc:	af00      	add	r7, sp, #0
 80012fe:	6078      	str	r0, [r7, #4]
  /* Check the UART handle allocation */
  if (huart == NULL)
 8001300:	687b      	ldr	r3, [r7, #4]
 8001302:	2b00      	cmp	r3, #0
 8001304:	d101      	bne.n	800130a <HAL_UART_Init+0x12>
  {
    return HAL_ERROR;
 8001306:	2301      	movs	r3, #1
 8001308:	e042      	b.n	8001390 <HAL_UART_Init+0x98>
  assert_param(IS_UART_WORD_LENGTH(huart->Init.WordLength));
#if defined(USART_CR1_OVER8)
  assert_param(IS_UART_OVERSAMPLING(huart->Init.OverSampling));
#endif /* USART_CR1_OVER8 */

  if (huart->gState == HAL_UART_STATE_RESET)
 800130a:	687b      	ldr	r3, [r7, #4]
 800130c:	f893 3041 	ldrb.w	r3, [r3, #65]	@ 0x41
 8001310:	b2db      	uxtb	r3, r3
 8001312:	2b00      	cmp	r3, #0
 8001314:	d106      	bne.n	8001324 <HAL_UART_Init+0x2c>
  {
    /* Allocate lock resource and initialize it */
    huart->Lock = HAL_UNLOCKED;
 8001316:	687b      	ldr	r3, [r7, #4]
 8001318:	2200      	movs	r2, #0
 800131a:	f883 2040 	strb.w	r2, [r3, #64]	@ 0x40

    /* Init the low level hardware */
    huart->MspInitCallback(huart);
#else
    /* Init the low level hardware : GPIO, CLOCK */
    HAL_UART_MspInit(huart);
 800131e:	6878      	ldr	r0, [r7, #4]
 8001320:	f7ff f812 	bl	8000348 <HAL_UART_MspInit>
#endif /* (USE_HAL_UART_REGISTER_CALLBACKS) */
  }

  huart->gState = HAL_UART_STATE_BUSY;
 8001324:	687b      	ldr	r3, [r7, #4]
 8001326:	2224      	movs	r2, #36	@ 0x24
 8001328:	f883 2041 	strb.w	r2, [r3, #65]	@ 0x41

  /* Disable the peripheral */
  __HAL_UART_DISABLE(huart);
 800132c:	687b      	ldr	r3, [r7, #4]
 800132e:	681b      	ldr	r3, [r3, #0]
 8001330:	68da      	ldr	r2, [r3, #12]
 8001332:	687b      	ldr	r3, [r7, #4]
 8001334:	681b      	ldr	r3, [r3, #0]
 8001336:	f422 5200 	bic.w	r2, r2, #8192	@ 0x2000
 800133a:	60da      	str	r2, [r3, #12]

  /* Set the UART Communication parameters */
  UART_SetConfig(huart);
 800133c:	6878      	ldr	r0, [r7, #4]
 800133e:	f000 f971 	bl	8001624 <UART_SetConfig>

  /* In asynchronous mode, the following bits must be kept cleared:
     - LINEN and CLKEN bits in the USART_CR2 register,
     - SCEN, HDSEL and IREN  bits in the USART_CR3 register.*/
  CLEAR_BIT(huart->Instance->CR2, (USART_CR2_LINEN | USART_CR2_CLKEN));
 8001342:	687b      	ldr	r3, [r7, #4]
 8001344:	681b      	ldr	r3, [r3, #0]
 8001346:	691a      	ldr	r2, [r3, #16]
 8001348:	687b      	ldr	r3, [r7, #4]
 800134a:	681b      	ldr	r3, [r3, #0]
 800134c:	f422 4290 	bic.w	r2, r2, #18432	@ 0x4800
 8001350:	611a      	str	r2, [r3, #16]
  CLEAR_BIT(huart->Instance->CR3, (USART_CR3_SCEN | USART_CR3_HDSEL | USART_CR3_IREN));
 8001352:	687b      	ldr	r3, [r7, #4]
 8001354:	681b      	ldr	r3, [r3, #0]
 8001356:	695a      	ldr	r2, [r3, #20]
 8001358:	687b      	ldr	r3, [r7, #4]
 800135a:	681b      	ldr	r3, [r3, #0]
 800135c:	f022 022a 	bic.w	r2, r2, #42	@ 0x2a
 8001360:	615a      	str	r2, [r3, #20]

  /* Enable the peripheral */
  __HAL_UART_ENABLE(huart);
 8001362:	687b      	ldr	r3, [r7, #4]
 8001364:	681b      	ldr	r3, [r3, #0]
 8001366:	68da      	ldr	r2, [r3, #12]
 8001368:	687b      	ldr	r3, [r7, #4]
 800136a:	681b      	ldr	r3, [r3, #0]
 800136c:	f442 5200 	orr.w	r2, r2, #8192	@ 0x2000
 8001370:	60da      	str	r2, [r3, #12]

  /* Initialize the UART state */
  huart->ErrorCode = HAL_UART_ERROR_NONE;
 8001372:	687b      	ldr	r3, [r7, #4]
 8001374:	2200      	movs	r2, #0
 8001376:	645a      	str	r2, [r3, #68]	@ 0x44
  huart->gState = HAL_UART_STATE_READY;
 8001378:	687b      	ldr	r3, [r7, #4]
 800137a:	2220      	movs	r2, #32
 800137c:	f883 2041 	strb.w	r2, [r3, #65]	@ 0x41
  huart->RxState = HAL_UART_STATE_READY;
 8001380:	687b      	ldr	r3, [r7, #4]
 8001382:	2220      	movs	r2, #32
 8001384:	f883 2042 	strb.w	r2, [r3, #66]	@ 0x42
  huart->RxEventType = HAL_UART_RXEVENT_TC;
 8001388:	687b      	ldr	r3, [r7, #4]
 800138a:	2200      	movs	r2, #0
 800138c:	635a      	str	r2, [r3, #52]	@ 0x34

  return HAL_OK;
 800138e:	2300      	movs	r3, #0
}
 8001390:	4618      	mov	r0, r3
 8001392:	3708      	adds	r7, #8
 8001394:	46bd      	mov	sp, r7
 8001396:	bd80      	pop	{r7, pc}

08001398 <HAL_UART_Transmit>:
  * @param  Size  Amount of data elements (u8 or u16) to be sent
  * @param  Timeout Timeout duration
  * @retval HAL status
  */
HAL_StatusTypeDef HAL_UART_Transmit(UART_HandleTypeDef *huart, const uint8_t *pData, uint16_t Size, uint32_t Timeout)
{
 8001398:	b580      	push	{r7, lr}
 800139a:	b08a      	sub	sp, #40	@ 0x28
 800139c:	af02      	add	r7, sp, #8
 800139e:	60f8      	str	r0, [r7, #12]
 80013a0:	60b9      	str	r1, [r7, #8]
 80013a2:	603b      	str	r3, [r7, #0]
 80013a4:	4613      	mov	r3, r2
 80013a6:	80fb      	strh	r3, [r7, #6]
  const uint8_t  *pdata8bits;
  const uint16_t *pdata16bits;
  uint32_t tickstart = 0U;
 80013a8:	2300      	movs	r3, #0
 80013aa:	617b      	str	r3, [r7, #20]

  /* Check that a Tx process is not already ongoing */
  if (huart->gState == HAL_UART_STATE_READY)
 80013ac:	68fb      	ldr	r3, [r7, #12]
 80013ae:	f893 3041 	ldrb.w	r3, [r3, #65]	@ 0x41
 80013b2:	b2db      	uxtb	r3, r3
 80013b4:	2b20      	cmp	r3, #32
 80013b6:	d175      	bne.n	80014a4 <HAL_UART_Transmit+0x10c>
  {
    if ((pData == NULL) || (Size == 0U))
 80013b8:	68bb      	ldr	r3, [r7, #8]
 80013ba:	2b00      	cmp	r3, #0
 80013bc:	d002      	beq.n	80013c4 <HAL_UART_Transmit+0x2c>
 80013be:	88fb      	ldrh	r3, [r7, #6]
 80013c0:	2b00      	cmp	r3, #0
 80013c2:	d101      	bne.n	80013c8 <HAL_UART_Transmit+0x30>
    {
      return  HAL_ERROR;
 80013c4:	2301      	movs	r3, #1
 80013c6:	e06e      	b.n	80014a6 <HAL_UART_Transmit+0x10e>
    }

    huart->ErrorCode = HAL_UART_ERROR_NONE;
 80013c8:	68fb      	ldr	r3, [r7, #12]
 80013ca:	2200      	movs	r2, #0
 80013cc:	645a      	str	r2, [r3, #68]	@ 0x44
    huart->gState = HAL_UART_STATE_BUSY_TX;
 80013ce:	68fb      	ldr	r3, [r7, #12]
 80013d0:	2221      	movs	r2, #33	@ 0x21
 80013d2:	f883 2041 	strb.w	r2, [r3, #65]	@ 0x41

    /* Init tickstart for timeout management */
    tickstart = HAL_GetTick();
 80013d6:	f7ff f8e9 	bl	80005ac <HAL_GetTick>
 80013da:	6178      	str	r0, [r7, #20]

    huart->TxXferSize = Size;
 80013dc:	68fb      	ldr	r3, [r7, #12]
 80013de:	88fa      	ldrh	r2, [r7, #6]
 80013e0:	849a      	strh	r2, [r3, #36]	@ 0x24
    huart->TxXferCount = Size;
 80013e2:	68fb      	ldr	r3, [r7, #12]
 80013e4:	88fa      	ldrh	r2, [r7, #6]
 80013e6:	84da      	strh	r2, [r3, #38]	@ 0x26

    /* In case of 9bits/No Parity transfer, pData needs to be handled as a uint16_t pointer */
    if ((huart->Init.WordLength == UART_WORDLENGTH_9B) && (huart->Init.Parity == UART_PARITY_NONE))
 80013e8:	68fb      	ldr	r3, [r7, #12]
 80013ea:	689b      	ldr	r3, [r3, #8]
 80013ec:	f5b3 5f80 	cmp.w	r3, #4096	@ 0x1000
 80013f0:	d108      	bne.n	8001404 <HAL_UART_Transmit+0x6c>
 80013f2:	68fb      	ldr	r3, [r7, #12]
 80013f4:	691b      	ldr	r3, [r3, #16]
 80013f6:	2b00      	cmp	r3, #0
 80013f8:	d104      	bne.n	8001404 <HAL_UART_Transmit+0x6c>
    {
      pdata8bits  = NULL;
 80013fa:	2300      	movs	r3, #0
 80013fc:	61fb      	str	r3, [r7, #28]
      pdata16bits = (const uint16_t *) pData;
 80013fe:	68bb      	ldr	r3, [r7, #8]
 8001400:	61bb      	str	r3, [r7, #24]
 8001402:	e003      	b.n	800140c <HAL_UART_Transmit+0x74>
    }
    else
    {
      pdata8bits  = pData;
 8001404:	68bb      	ldr	r3, [r7, #8]
 8001406:	61fb      	str	r3, [r7, #28]
      pdata16bits = NULL;
 8001408:	2300      	movs	r3, #0
 800140a:	61bb      	str	r3, [r7, #24]
    }

    while (huart->TxXferCount > 0U)
 800140c:	e02e      	b.n	800146c <HAL_UART_Transmit+0xd4>
    {
      if (UART_WaitOnFlagUntilTimeout(huart, UART_FLAG_TXE, RESET, tickstart, Timeout) != HAL_OK)
 800140e:	683b      	ldr	r3, [r7, #0]
 8001410:	9300      	str	r3, [sp, #0]
 8001412:	697b      	ldr	r3, [r7, #20]
 8001414:	2200      	movs	r2, #0
 8001416:	2180      	movs	r1, #128	@ 0x80
 8001418:	68f8      	ldr	r0, [r7, #12]
 800141a:	f000 f848 	bl	80014ae <UART_WaitOnFlagUntilTimeout>
 800141e:	4603      	mov	r3, r0
 8001420:	2b00      	cmp	r3, #0
 8001422:	d005      	beq.n	8001430 <HAL_UART_Transmit+0x98>
      {
        huart->gState = HAL_UART_STATE_READY;
 8001424:	68fb      	ldr	r3, [r7, #12]
 8001426:	2220      	movs	r2, #32
 8001428:	f883 2041 	strb.w	r2, [r3, #65]	@ 0x41

        return HAL_TIMEOUT;
 800142c:	2303      	movs	r3, #3
 800142e:	e03a      	b.n	80014a6 <HAL_UART_Transmit+0x10e>
      }
      if (pdata8bits == NULL)
 8001430:	69fb      	ldr	r3, [r7, #28]
 8001432:	2b00      	cmp	r3, #0
 8001434:	d10b      	bne.n	800144e <HAL_UART_Transmit+0xb6>
      {
        huart->Instance->DR = (uint16_t)(*pdata16bits & 0x01FFU);
 8001436:	69bb      	ldr	r3, [r7, #24]
 8001438:	881b      	ldrh	r3, [r3, #0]
 800143a:	461a      	mov	r2, r3
 800143c:	68fb      	ldr	r3, [r7, #12]
 800143e:	681b      	ldr	r3, [r3, #0]
 8001440:	f3c2 0208 	ubfx	r2, r2, #0, #9
 8001444:	605a      	str	r2, [r3, #4]
        pdata16bits++;
 8001446:	69bb      	ldr	r3, [r7, #24]
 8001448:	3302      	adds	r3, #2
 800144a:	61bb      	str	r3, [r7, #24]
 800144c:	e007      	b.n	800145e <HAL_UART_Transmit+0xc6>
      }
      else
      {
        huart->Instance->DR = (uint8_t)(*pdata8bits & 0xFFU);
 800144e:	69fb      	ldr	r3, [r7, #28]
 8001450:	781a      	ldrb	r2, [r3, #0]
 8001452:	68fb      	ldr	r3, [r7, #12]
 8001454:	681b      	ldr	r3, [r3, #0]
 8001456:	605a      	str	r2, [r3, #4]
        pdata8bits++;
 8001458:	69fb      	ldr	r3, [r7, #28]
 800145a:	3301      	adds	r3, #1
 800145c:	61fb      	str	r3, [r7, #28]
      }
      huart->TxXferCount--;
 800145e:	68fb      	ldr	r3, [r7, #12]
 8001460:	8cdb      	ldrh	r3, [r3, #38]	@ 0x26
 8001462:	b29b      	uxth	r3, r3
 8001464:	3b01      	subs	r3, #1
 8001466:	b29a      	uxth	r2, r3
 8001468:	68fb      	ldr	r3, [r7, #12]
 800146a:	84da      	strh	r2, [r3, #38]	@ 0x26
    while (huart->TxXferCount > 0U)
 800146c:	68fb      	ldr	r3, [r7, #12]
 800146e:	8cdb      	ldrh	r3, [r3, #38]	@ 0x26
 8001470:	b29b      	uxth	r3, r3
 8001472:	2b00      	cmp	r3, #0
 8001474:	d1cb      	bne.n	800140e <HAL_UART_Transmit+0x76>
    }

    if (UART_WaitOnFlagUntilTimeout(huart, UART_FLAG_TC, RESET, tickstart, Timeout) != HAL_OK)
 8001476:	683b      	ldr	r3, [r7, #0]
 8001478:	9300      	str	r3, [sp, #0]
 800147a:	697b      	ldr	r3, [r7, #20]
 800147c:	2200      	movs	r2, #0
 800147e:	2140      	movs	r1, #64	@ 0x40
 8001480:	68f8      	ldr	r0, [r7, #12]
 8001482:	f000 f814 	bl	80014ae <UART_WaitOnFlagUntilTimeout>
 8001486:	4603      	mov	r3, r0
 8001488:	2b00      	cmp	r3, #0
 800148a:	d005      	beq.n	8001498 <HAL_UART_Transmit+0x100>
    {
      huart->gState = HAL_UART_STATE_READY;
 800148c:	68fb      	ldr	r3, [r7, #12]
 800148e:	2220      	movs	r2, #32
 8001490:	f883 2041 	strb.w	r2, [r3, #65]	@ 0x41

      return HAL_TIMEOUT;
 8001494:	2303      	movs	r3, #3
 8001496:	e006      	b.n	80014a6 <HAL_UART_Transmit+0x10e>
    }

    /* At end of Tx process, restore huart->gState to Ready */
    huart->gState = HAL_UART_STATE_READY;
 8001498:	68fb      	ldr	r3, [r7, #12]
 800149a:	2220      	movs	r2, #32
 800149c:	f883 2041 	strb.w	r2, [r3, #65]	@ 0x41

    return HAL_OK;
 80014a0:	2300      	movs	r3, #0
 80014a2:	e000      	b.n	80014a6 <HAL_UART_Transmit+0x10e>
  }
  else
  {
    return HAL_BUSY;
 80014a4:	2302      	movs	r3, #2
  }
}
 80014a6:	4618      	mov	r0, r3
 80014a8:	3720      	adds	r7, #32
 80014aa:	46bd      	mov	sp, r7
 80014ac:	bd80      	pop	{r7, pc}

080014ae <UART_WaitOnFlagUntilTimeout>:
  * @param  Timeout Timeout duration
  * @retval HAL status
  */
static HAL_StatusTypeDef UART_WaitOnFlagUntilTimeout(UART_HandleTypeDef *huart, uint32_t Flag, FlagStatus Status,
                                                     uint32_t Tickstart, uint32_t Timeout)
{
 80014ae:	b580      	push	{r7, lr}
 80014b0:	b086      	sub	sp, #24
 80014b2:	af00      	add	r7, sp, #0
 80014b4:	60f8      	str	r0, [r7, #12]
 80014b6:	60b9      	str	r1, [r7, #8]
 80014b8:	603b      	str	r3, [r7, #0]
 80014ba:	4613      	mov	r3, r2
 80014bc:	71fb      	strb	r3, [r7, #7]
  /* Wait until flag is set */
  while ((__HAL_UART_GET_FLAG(huart, Flag) ? SET : RESET) == Status)
 80014be:	e03b      	b.n	8001538 <UART_WaitOnFlagUntilTimeout+0x8a>
  {
    /* Check for the Timeout */
    if (Timeout != HAL_MAX_DELAY)
 80014c0:	6a3b      	ldr	r3, [r7, #32]
 80014c2:	f1b3 3fff 	cmp.w	r3, #4294967295
 80014c6:	d037      	beq.n	8001538 <UART_WaitOnFlagUntilTimeout+0x8a>
    {
      if (((HAL_GetTick() - Tickstart) > Timeout) || (Timeout == 0U))
 80014c8:	f7ff f870 	bl	80005ac <HAL_GetTick>
 80014cc:	4602      	mov	r2, r0
 80014ce:	683b      	ldr	r3, [r7, #0]
 80014d0:	1ad3      	subs	r3, r2, r3
 80014d2:	6a3a      	ldr	r2, [r7, #32]
 80014d4:	429a      	cmp	r2, r3
 80014d6:	d302      	bcc.n	80014de <UART_WaitOnFlagUntilTimeout+0x30>
 80014d8:	6a3b      	ldr	r3, [r7, #32]
 80014da:	2b00      	cmp	r3, #0
 80014dc:	d101      	bne.n	80014e2 <UART_WaitOnFlagUntilTimeout+0x34>
      {

        return HAL_TIMEOUT;
 80014de:	2303      	movs	r3, #3
 80014e0:	e03a      	b.n	8001558 <UART_WaitOnFlagUntilTimeout+0xaa>
      }

      if ((READ_BIT(huart->Instance->CR1, USART_CR1_RE) != 0U) && (Flag != UART_FLAG_TXE) && (Flag != UART_FLAG_TC))
 80014e2:	68fb      	ldr	r3, [r7, #12]
 80014e4:	681b      	ldr	r3, [r3, #0]
 80014e6:	68db      	ldr	r3, [r3, #12]
 80014e8:	f003 0304 	and.w	r3, r3, #4
 80014ec:	2b00      	cmp	r3, #0
 80014ee:	d023      	beq.n	8001538 <UART_WaitOnFlagUntilTimeout+0x8a>
 80014f0:	68bb      	ldr	r3, [r7, #8]
 80014f2:	2b80      	cmp	r3, #128	@ 0x80
 80014f4:	d020      	beq.n	8001538 <UART_WaitOnFlagUntilTimeout+0x8a>
 80014f6:	68bb      	ldr	r3, [r7, #8]
 80014f8:	2b40      	cmp	r3, #64	@ 0x40
 80014fa:	d01d      	beq.n	8001538 <UART_WaitOnFlagUntilTimeout+0x8a>
      {
        if (__HAL_UART_GET_FLAG(huart, UART_FLAG_ORE) == SET)
 80014fc:	68fb      	ldr	r3, [r7, #12]
 80014fe:	681b      	ldr	r3, [r3, #0]
 8001500:	681b      	ldr	r3, [r3, #0]
 8001502:	f003 0308 	and.w	r3, r3, #8
 8001506:	2b08      	cmp	r3, #8
 8001508:	d116      	bne.n	8001538 <UART_WaitOnFlagUntilTimeout+0x8a>
        {
          /* Clear Overrun Error flag*/
          __HAL_UART_CLEAR_OREFLAG(huart);
 800150a:	2300      	movs	r3, #0
 800150c:	617b      	str	r3, [r7, #20]
 800150e:	68fb      	ldr	r3, [r7, #12]
 8001510:	681b      	ldr	r3, [r3, #0]
 8001512:	681b      	ldr	r3, [r3, #0]
 8001514:	617b      	str	r3, [r7, #20]
 8001516:	68fb      	ldr	r3, [r7, #12]
 8001518:	681b      	ldr	r3, [r3, #0]
 800151a:	685b      	ldr	r3, [r3, #4]
 800151c:	617b      	str	r3, [r7, #20]
 800151e:	697b      	ldr	r3, [r7, #20]

          /* Blocking error : transfer is aborted
          Set the UART state ready to be able to start again the process,
          Disable Rx Interrupts if ongoing */
          UART_EndRxTransfer(huart);
 8001520:	68f8      	ldr	r0, [r7, #12]
 8001522:	f000 f81d 	bl	8001560 <UART_EndRxTransfer>

          huart->ErrorCode = HAL_UART_ERROR_ORE;
 8001526:	68fb      	ldr	r3, [r7, #12]
 8001528:	2208      	movs	r2, #8
 800152a:	645a      	str	r2, [r3, #68]	@ 0x44

          /* Process Unlocked */
          __HAL_UNLOCK(huart);
 800152c:	68fb      	ldr	r3, [r7, #12]
 800152e:	2200      	movs	r2, #0
 8001530:	f883 2040 	strb.w	r2, [r3, #64]	@ 0x40

          return HAL_ERROR;
 8001534:	2301      	movs	r3, #1
 8001536:	e00f      	b.n	8001558 <UART_WaitOnFlagUntilTimeout+0xaa>
  while ((__HAL_UART_GET_FLAG(huart, Flag) ? SET : RESET) == Status)
 8001538:	68fb      	ldr	r3, [r7, #12]
 800153a:	681b      	ldr	r3, [r3, #0]
 800153c:	681a      	ldr	r2, [r3, #0]
 800153e:	68bb      	ldr	r3, [r7, #8]
 8001540:	4013      	ands	r3, r2
 8001542:	68ba      	ldr	r2, [r7, #8]
 8001544:	429a      	cmp	r2, r3
 8001546:	bf0c      	ite	eq
 8001548:	2301      	moveq	r3, #1
 800154a:	2300      	movne	r3, #0
 800154c:	b2db      	uxtb	r3, r3
 800154e:	461a      	mov	r2, r3
 8001550:	79fb      	ldrb	r3, [r7, #7]
 8001552:	429a      	cmp	r2, r3
 8001554:	d0b4      	beq.n	80014c0 <UART_WaitOnFlagUntilTimeout+0x12>
        }
      }
    }
  }
  return HAL_OK;
 8001556:	2300      	movs	r3, #0
}
 8001558:	4618      	mov	r0, r3
 800155a:	3718      	adds	r7, #24
 800155c:	46bd      	mov	sp, r7
 800155e:	bd80      	pop	{r7, pc}

08001560 <UART_EndRxTransfer>:
  * @brief  End ongoing Rx transfer on UART peripheral (following error detection or Reception completion).
  * @param  huart UART handle.
  * @retval None
  */
static void UART_EndRxTransfer(UART_HandleTypeDef *huart)
{
 8001560:	b480      	push	{r7}
 8001562:	b095      	sub	sp, #84	@ 0x54
 8001564:	af00      	add	r7, sp, #0
 8001566:	6078      	str	r0, [r7, #4]
  /* Disable RXNE, PE and ERR (Frame error, noise error, overrun error) interrupts */
  ATOMIC_CLEAR_BIT(huart->Instance->CR1, (USART_CR1_RXNEIE | USART_CR1_PEIE));
 8001568:	687b      	ldr	r3, [r7, #4]
 800156a:	681b      	ldr	r3, [r3, #0]
 800156c:	330c      	adds	r3, #12
 800156e:	637b      	str	r3, [r7, #52]	@ 0x34
 */
__STATIC_FORCEINLINE uint32_t __LDREXW(volatile uint32_t *addr)
{
    uint32_t result;

   __ASM volatile ("ldrex %0, %1" : "=r" (result) : "Q" (*addr) );
 8001570:	6b7b      	ldr	r3, [r7, #52]	@ 0x34
 8001572:	e853 3f00 	ldrex	r3, [r3]
 8001576:	633b      	str	r3, [r7, #48]	@ 0x30
   return(result);
 8001578:	6b3b      	ldr	r3, [r7, #48]	@ 0x30
 800157a:	f423 7390 	bic.w	r3, r3, #288	@ 0x120
 800157e:	64fb      	str	r3, [r7, #76]	@ 0x4c
 8001580:	687b      	ldr	r3, [r7, #4]
 8001582:	681b      	ldr	r3, [r3, #0]
 8001584:	330c      	adds	r3, #12
 8001586:	6cfa      	ldr	r2, [r7, #76]	@ 0x4c
 8001588:	643a      	str	r2, [r7, #64]	@ 0x40
 800158a:	63fb      	str	r3, [r7, #60]	@ 0x3c
 */
__STATIC_FORCEINLINE uint32_t __STREXW(uint32_t value, volatile uint32_t *addr)
{
   uint32_t result;

   __ASM volatile ("strex %0, %2, %1" : "=&r" (result), "=Q" (*addr) : "r" (value) );
 800158c:	6bf9      	ldr	r1, [r7, #60]	@ 0x3c
 800158e:	6c3a      	ldr	r2, [r7, #64]	@ 0x40
 8001590:	e841 2300 	strex	r3, r2, [r1]
 8001594:	63bb      	str	r3, [r7, #56]	@ 0x38
   return(result);
 8001596:	6bbb      	ldr	r3, [r7, #56]	@ 0x38
 8001598:	2b00      	cmp	r3, #0
 800159a:	d1e5      	bne.n	8001568 <UART_EndRxTransfer+0x8>
  ATOMIC_CLEAR_BIT(huart->Instance->CR3, USART_CR3_EIE);
 800159c:	687b      	ldr	r3, [r7, #4]
 800159e:	681b      	ldr	r3, [r3, #0]
 80015a0:	3314      	adds	r3, #20
 80015a2:	623b      	str	r3, [r7, #32]
   __ASM volatile ("ldrex %0, %1" : "=r" (result) : "Q" (*addr) );
 80015a4:	6a3b      	ldr	r3, [r7, #32]
 80015a6:	e853 3f00 	ldrex	r3, [r3]
 80015aa:	61fb      	str	r3, [r7, #28]
   return(result);
 80015ac:	69fb      	ldr	r3, [r7, #28]
 80015ae:	f023 0301 	bic.w	r3, r3, #1
 80015b2:	64bb      	str	r3, [r7, #72]	@ 0x48
 80015b4:	687b      	ldr	r3, [r7, #4]
 80015b6:	681b      	ldr	r3, [r3, #0]
 80015b8:	3314      	adds	r3, #20
 80015ba:	6cba      	ldr	r2, [r7, #72]	@ 0x48
 80015bc:	62fa      	str	r2, [r7, #44]	@ 0x2c
 80015be:	62bb      	str	r3, [r7, #40]	@ 0x28
   __ASM volatile ("strex %0, %2, %1" : "=&r" (result), "=Q" (*addr) : "r" (value) );
 80015c0:	6ab9      	ldr	r1, [r7, #40]	@ 0x28
 80015c2:	6afa      	ldr	r2, [r7, #44]	@ 0x2c
 80015c4:	e841 2300 	strex	r3, r2, [r1]
 80015c8:	627b      	str	r3, [r7, #36]	@ 0x24
   return(result);
 80015ca:	6a7b      	ldr	r3, [r7, #36]	@ 0x24
 80015cc:	2b00      	cmp	r3, #0
 80015ce:	d1e5      	bne.n	800159c <UART_EndRxTransfer+0x3c>

  /* In case of reception waiting for IDLE event, disable also the IDLE IE interrupt source */
  if (huart->ReceptionType == HAL_UART_RECEPTION_TOIDLE)
 80015d0:	687b      	ldr	r3, [r7, #4]
 80015d2:	6b1b      	ldr	r3, [r3, #48]	@ 0x30
 80015d4:	2b01      	cmp	r3, #1
 80015d6:	d119      	bne.n	800160c <UART_EndRxTransfer+0xac>
  {
    ATOMIC_CLEAR_BIT(huart->Instance->CR1, USART_CR1_IDLEIE);
 80015d8:	687b      	ldr	r3, [r7, #4]
 80015da:	681b      	ldr	r3, [r3, #0]
 80015dc:	330c      	adds	r3, #12
 80015de:	60fb      	str	r3, [r7, #12]
   __ASM volatile ("ldrex %0, %1" : "=r" (result) : "Q" (*addr) );
 80015e0:	68fb      	ldr	r3, [r7, #12]
 80015e2:	e853 3f00 	ldrex	r3, [r3]
 80015e6:	60bb      	str	r3, [r7, #8]
   return(result);
 80015e8:	68bb      	ldr	r3, [r7, #8]
 80015ea:	f023 0310 	bic.w	r3, r3, #16
 80015ee:	647b      	str	r3, [r7, #68]	@ 0x44
 80015f0:	687b      	ldr	r3, [r7, #4]
 80015f2:	681b      	ldr	r3, [r3, #0]
 80015f4:	330c      	adds	r3, #12
 80015f6:	6c7a      	ldr	r2, [r7, #68]	@ 0x44
 80015f8:	61ba      	str	r2, [r7, #24]
 80015fa:	617b      	str	r3, [r7, #20]
   __ASM volatile ("strex %0, %2, %1" : "=&r" (result), "=Q" (*addr) : "r" (value) );
 80015fc:	6979      	ldr	r1, [r7, #20]
 80015fe:	69ba      	ldr	r2, [r7, #24]
 8001600:	e841 2300 	strex	r3, r2, [r1]
 8001604:	613b      	str	r3, [r7, #16]
   return(result);
 8001606:	693b      	ldr	r3, [r7, #16]
 8001608:	2b00      	cmp	r3, #0
 800160a:	d1e5      	bne.n	80015d8 <UART_EndRxTransfer+0x78>
  }

  /* At end of Rx process, restore huart->RxState to Ready */
  huart->RxState = HAL_UART_STATE_READY;
 800160c:	687b      	ldr	r3, [r7, #4]
 800160e:	2220      	movs	r2, #32
 8001610:	f883 2042 	strb.w	r2, [r3, #66]	@ 0x42
  huart->ReceptionType = HAL_UART_RECEPTION_STANDARD;
 8001614:	687b      	ldr	r3, [r7, #4]
 8001616:	2200      	movs	r2, #0
 8001618:	631a      	str	r2, [r3, #48]	@ 0x30
}
 800161a:	bf00      	nop
 800161c:	3754      	adds	r7, #84	@ 0x54
 800161e:	46bd      	mov	sp, r7
 8001620:	bc80      	pop	{r7}
 8001622:	4770      	bx	lr

08001624 <UART_SetConfig>:
  * @param  huart  Pointer to a UART_HandleTypeDef structure that contains
  *                the configuration information for the specified UART module.
  * @retval None
  */
static void UART_SetConfig(UART_HandleTypeDef *huart)
{
 8001624:	b580      	push	{r7, lr}
 8001626:	b084      	sub	sp, #16
 8001628:	af00      	add	r7, sp, #0
 800162a:	6078      	str	r0, [r7, #4]
  assert_param(IS_UART_MODE(huart->Init.Mode));

  /*-------------------------- USART CR2 Configuration -----------------------*/
  /* Configure the UART Stop Bits: Set STOP[13:12] bits
     according to huart->Init.StopBits value */
  MODIFY_REG(huart->Instance->CR2, USART_CR2_STOP, huart->Init.StopBits);
 800162c:	687b      	ldr	r3, [r7, #4]
 800162e:	681b      	ldr	r3, [r3, #0]
 8001630:	691b      	ldr	r3, [r3, #16]
 8001632:	f423 5140 	bic.w	r1, r3, #12288	@ 0x3000
 8001636:	687b      	ldr	r3, [r7, #4]
 8001638:	68da      	ldr	r2, [r3, #12]
 800163a:	687b      	ldr	r3, [r7, #4]
 800163c:	681b      	ldr	r3, [r3, #0]
 800163e:	430a      	orrs	r2, r1
 8001640:	611a      	str	r2, [r3, #16]
  tmpreg = (uint32_t)huart->Init.WordLength | huart->Init.Parity | huart->Init.Mode | huart->Init.OverSampling;
  MODIFY_REG(huart->Instance->CR1,
             (uint32_t)(USART_CR1_M | USART_CR1_PCE | USART_CR1_PS | USART_CR1_TE | USART_CR1_RE | USART_CR1_OVER8),
             tmpreg);
#else
  tmpreg = (uint32_t)huart->Init.WordLength | huart->Init.Parity | huart->Init.Mode;
 8001642:	687b      	ldr	r3, [r7, #4]
 8001644:	689a      	ldr	r2, [r3, #8]
 8001646:	687b      	ldr	r3, [r7, #4]
 8001648:	691b      	ldr	r3, [r3, #16]
 800164a:	431a      	orrs	r2, r3
 800164c:	687b      	ldr	r3, [r7, #4]
 800164e:	695b      	ldr	r3, [r3, #20]
 8001650:	4313      	orrs	r3, r2
 8001652:	60bb      	str	r3, [r7, #8]
  MODIFY_REG(huart->Instance->CR1,
 8001654:	687b      	ldr	r3, [r7, #4]
 8001656:	681b      	ldr	r3, [r3, #0]
 8001658:	68db      	ldr	r3, [r3, #12]
 800165a:	f423 53b0 	bic.w	r3, r3, #5632	@ 0x1600
 800165e:	f023 030c 	bic.w	r3, r3, #12
 8001662:	687a      	ldr	r2, [r7, #4]
 8001664:	6812      	ldr	r2, [r2, #0]
 8001666:	68b9      	ldr	r1, [r7, #8]
 8001668:	430b      	orrs	r3, r1
 800166a:	60d3      	str	r3, [r2, #12]
             tmpreg);
#endif /* USART_CR1_OVER8 */

  /*-------------------------- USART CR3 Configuration -----------------------*/
  /* Configure the UART HFC: Set CTSE and RTSE bits according to huart->Init.HwFlowCtl value */
  MODIFY_REG(huart->Instance->CR3, (USART_CR3_RTSE | USART_CR3_CTSE), huart->Init.HwFlowCtl);
 800166c:	687b      	ldr	r3, [r7, #4]
 800166e:	681b      	ldr	r3, [r3, #0]
 8001670:	695b      	ldr	r3, [r3, #20]
 8001672:	f423 7140 	bic.w	r1, r3, #768	@ 0x300
 8001676:	687b      	ldr	r3, [r7, #4]
 8001678:	699a      	ldr	r2, [r3, #24]
 800167a:	687b      	ldr	r3, [r7, #4]
 800167c:	681b      	ldr	r3, [r3, #0]
 800167e:	430a      	orrs	r2, r1
 8001680:	615a      	str	r2, [r3, #20]


  if(huart->Instance == USART1)
 8001682:	687b      	ldr	r3, [r7, #4]
 8001684:	681b      	ldr	r3, [r3, #0]
 8001686:	4a2c      	ldr	r2, [pc, #176]	@ (8001738 <UART_SetConfig+0x114>)
 8001688:	4293      	cmp	r3, r2
 800168a:	d103      	bne.n	8001694 <UART_SetConfig+0x70>
  {
    pclk = HAL_RCC_GetPCLK2Freq();
 800168c:	f7ff fe02 	bl	8001294 <HAL_RCC_GetPCLK2Freq>
 8001690:	60f8      	str	r0, [r7, #12]
 8001692:	e002      	b.n	800169a <UART_SetConfig+0x76>
  }
  else
  {
    pclk = HAL_RCC_GetPCLK1Freq();
 8001694:	f7ff fdea 	bl	800126c <HAL_RCC_GetPCLK1Freq>
 8001698:	60f8      	str	r0, [r7, #12]
  else
  {
    huart->Instance->BRR = UART_BRR_SAMPLING16(pclk, huart->Init.BaudRate);
  }
#else
  huart->Instance->BRR = UART_BRR_SAMPLING16(pclk, huart->Init.BaudRate);
 800169a:	68fa      	ldr	r2, [r7, #12]
 800169c:	4613      	mov	r3, r2
 800169e:	009b      	lsls	r3, r3, #2
 80016a0:	4413      	add	r3, r2
 80016a2:	009a      	lsls	r2, r3, #2
 80016a4:	441a      	add	r2, r3
 80016a6:	687b      	ldr	r3, [r7, #4]
 80016a8:	685b      	ldr	r3, [r3, #4]
 80016aa:	009b      	lsls	r3, r3, #2
 80016ac:	fbb2 f3f3 	udiv	r3, r2, r3
 80016b0:	4a22      	ldr	r2, [pc, #136]	@ (800173c <UART_SetConfig+0x118>)
 80016b2:	fba2 2303 	umull	r2, r3, r2, r3
 80016b6:	095b      	lsrs	r3, r3, #5
 80016b8:	0119      	lsls	r1, r3, #4
 80016ba:	68fa      	ldr	r2, [r7, #12]
 80016bc:	4613      	mov	r3, r2
 80016be:	009b      	lsls	r3, r3, #2
 80016c0:	4413      	add	r3, r2
 80016c2:	009a      	lsls	r2, r3, #2
 80016c4:	441a      	add	r2, r3
 80016c6:	687b      	ldr	r3, [r7, #4]
 80016c8:	685b      	ldr	r3, [r3, #4]
 80016ca:	009b      	lsls	r3, r3, #2
 80016cc:	fbb2 f2f3 	udiv	r2, r2, r3
 80016d0:	4b1a      	ldr	r3, [pc, #104]	@ (800173c <UART_SetConfig+0x118>)
 80016d2:	fba3 0302 	umull	r0, r3, r3, r2
 80016d6:	095b      	lsrs	r3, r3, #5
 80016d8:	2064      	movs	r0, #100	@ 0x64
 80016da:	fb00 f303 	mul.w	r3, r0, r3
 80016de:	1ad3      	subs	r3, r2, r3
 80016e0:	011b      	lsls	r3, r3, #4
 80016e2:	3332      	adds	r3, #50	@ 0x32
 80016e4:	4a15      	ldr	r2, [pc, #84]	@ (800173c <UART_SetConfig+0x118>)
 80016e6:	fba2 2303 	umull	r2, r3, r2, r3
 80016ea:	095b      	lsrs	r3, r3, #5
 80016ec:	f003 03f0 	and.w	r3, r3, #240	@ 0xf0
 80016f0:	4419      	add	r1, r3
 80016f2:	68fa      	ldr	r2, [r7, #12]
 80016f4:	4613      	mov	r3, r2
 80016f6:	009b      	lsls	r3, r3, #2
 80016f8:	4413      	add	r3, r2
 80016fa:	009a      	lsls	r2, r3, #2
 80016fc:	441a      	add	r2, r3
 80016fe:	687b      	ldr	r3, [r7, #4]
 8001700:	685b      	ldr	r3, [r3, #4]
 8001702:	009b      	lsls	r3, r3, #2
 8001704:	fbb2 f2f3 	udiv	r2, r2, r3
 8001708:	4b0c      	ldr	r3, [pc, #48]	@ (800173c <UART_SetConfig+0x118>)
 800170a:	fba3 0302 	umull	r0, r3, r3, r2
 800170e:	095b      	lsrs	r3, r3, #5
 8001710:	2064      	movs	r0, #100	@ 0x64
 8001712:	fb00 f303 	mul.w	r3, r0, r3
 8001716:	1ad3      	subs	r3, r2, r3
 8001718:	011b      	lsls	r3, r3, #4
 800171a:	3332      	adds	r3, #50	@ 0x32
 800171c:	4a07      	ldr	r2, [pc, #28]	@ (800173c <UART_SetConfig+0x118>)
 800171e:	fba2 2303 	umull	r2, r3, r2, r3
 8001722:	095b      	lsrs	r3, r3, #5
 8001724:	f003 020f 	and.w	r2, r3, #15
 8001728:	687b      	ldr	r3, [r7, #4]
 800172a:	681b      	ldr	r3, [r3, #0]
 800172c:	440a      	add	r2, r1
 800172e:	609a      	str	r2, [r3, #8]
#endif /* USART_CR1_OVER8 */
}
 8001730:	bf00      	nop
 8001732:	3710      	adds	r7, #16
 8001734:	46bd      	mov	sp, r7
 8001736:	bd80      	pop	{r7, pc}
 8001738:	40013800 	.word	0x40013800
 800173c:	51eb851f 	.word	0x51eb851f

08001740 <siprintf>:
 8001740:	b40e      	push	{r1, r2, r3}
 8001742:	f06f 4100 	mvn.w	r1, #2147483648	@ 0x80000000
 8001746:	b500      	push	{lr}
 8001748:	b09c      	sub	sp, #112	@ 0x70
 800174a:	ab1d      	add	r3, sp, #116	@ 0x74
 800174c:	9002      	str	r0, [sp, #8]
 800174e:	9006      	str	r0, [sp, #24]
 8001750:	9107      	str	r1, [sp, #28]
 8001752:	9104      	str	r1, [sp, #16]
 8001754:	4808      	ldr	r0, [pc, #32]	@ (8001778 <siprintf+0x38>)
 8001756:	4909      	ldr	r1, [pc, #36]	@ (800177c <siprintf+0x3c>)
 8001758:	f853 2b04 	ldr.w	r2, [r3], #4
 800175c:	9105      	str	r1, [sp, #20]
 800175e:	6800      	ldr	r0, [r0, #0]
 8001760:	a902      	add	r1, sp, #8
 8001762:	9301      	str	r3, [sp, #4]
 8001764:	f000 f992 	bl	8001a8c <_svfiprintf_r>
 8001768:	2200      	movs	r2, #0
 800176a:	9b02      	ldr	r3, [sp, #8]
 800176c:	701a      	strb	r2, [r3, #0]
 800176e:	b01c      	add	sp, #112	@ 0x70
 8001770:	f85d eb04 	ldr.w	lr, [sp], #4
 8001774:	b003      	add	sp, #12
 8001776:	4770      	bx	lr
 8001778:	2000000c 	.word	0x2000000c
 800177c:	ffff0208 	.word	0xffff0208

08001780 <memset>:
 8001780:	4603      	mov	r3, r0
 8001782:	4402      	add	r2, r0
 8001784:	4293      	cmp	r3, r2
 8001786:	d100      	bne.n	800178a <memset+0xa>
 8001788:	4770      	bx	lr
 800178a:	f803 1b01 	strb.w	r1, [r3], #1
 800178e:	e7f9      	b.n	8001784 <memset+0x4>

08001790 <__errno>:
 8001790:	4b01      	ldr	r3, [pc, #4]	@ (8001798 <__errno+0x8>)
 8001792:	6818      	ldr	r0, [r3, #0]
 8001794:	4770      	bx	lr
 8001796:	bf00      	nop
 8001798:	2000000c 	.word	0x2000000c

0800179c <__libc_init_array>:
 800179c:	b570      	push	{r4, r5, r6, lr}
 800179e:	2600      	movs	r6, #0
 80017a0:	4d0c      	ldr	r5, [pc, #48]	@ (80017d4 <__libc_init_array+0x38>)
 80017a2:	4c0d      	ldr	r4, [pc, #52]	@ (80017d8 <__libc_init_array+0x3c>)
 80017a4:	1b64      	subs	r4, r4, r5
 80017a6:	10a4      	asrs	r4, r4, #2
 80017a8:	42a6      	cmp	r6, r4
 80017aa:	d109      	bne.n	80017c0 <__libc_init_array+0x24>
 80017ac:	f000 fc78 	bl	80020a0 <_init>
 80017b0:	2600      	movs	r6, #0
 80017b2:	4d0a      	ldr	r5, [pc, #40]	@ (80017dc <__libc_init_array+0x40>)
 80017b4:	4c0a      	ldr	r4, [pc, #40]	@ (80017e0 <__libc_init_array+0x44>)
 80017b6:	1b64      	subs	r4, r4, r5
 80017b8:	10a4      	asrs	r4, r4, #2
 80017ba:	42a6      	cmp	r6, r4
 80017bc:	d105      	bne.n	80017ca <__libc_init_array+0x2e>
 80017be:	bd70      	pop	{r4, r5, r6, pc}
 80017c0:	f855 3b04 	ldr.w	r3, [r5], #4
 80017c4:	4798      	blx	r3
 80017c6:	3601      	adds	r6, #1
 80017c8:	e7ee      	b.n	80017a8 <__libc_init_array+0xc>
 80017ca:	f855 3b04 	ldr.w	r3, [r5], #4
 80017ce:	4798      	blx	r3
 80017d0:	3601      	adds	r6, #1
 80017d2:	e7f2      	b.n	80017ba <__libc_init_array+0x1e>
 80017d4:	08002138 	.word	0x08002138
 80017d8:	08002138 	.word	0x08002138
 80017dc:	08002138 	.word	0x08002138
 80017e0:	0800213c 	.word	0x0800213c

080017e4 <__retarget_lock_acquire_recursive>:
 80017e4:	4770      	bx	lr

080017e6 <__retarget_lock_release_recursive>:
 80017e6:	4770      	bx	lr

080017e8 <_free_r>:
 80017e8:	b538      	push	{r3, r4, r5, lr}
 80017ea:	4605      	mov	r5, r0
 80017ec:	2900      	cmp	r1, #0
 80017ee:	d040      	beq.n	8001872 <_free_r+0x8a>
 80017f0:	f851 3c04 	ldr.w	r3, [r1, #-4]
 80017f4:	1f0c      	subs	r4, r1, #4
 80017f6:	2b00      	cmp	r3, #0
 80017f8:	bfb8      	it	lt
 80017fa:	18e4      	addlt	r4, r4, r3
 80017fc:	f000 f8de 	bl	80019bc <__malloc_lock>
 8001800:	4a1c      	ldr	r2, [pc, #112]	@ (8001874 <_free_r+0x8c>)
 8001802:	6813      	ldr	r3, [r2, #0]
 8001804:	b933      	cbnz	r3, 8001814 <_free_r+0x2c>
 8001806:	6063      	str	r3, [r4, #4]
 8001808:	6014      	str	r4, [r2, #0]
 800180a:	4628      	mov	r0, r5
 800180c:	e8bd 4038 	ldmia.w	sp!, {r3, r4, r5, lr}
 8001810:	f000 b8da 	b.w	80019c8 <__malloc_unlock>
 8001814:	42a3      	cmp	r3, r4
 8001816:	d908      	bls.n	800182a <_free_r+0x42>
 8001818:	6820      	ldr	r0, [r4, #0]
 800181a:	1821      	adds	r1, r4, r0
 800181c:	428b      	cmp	r3, r1
 800181e:	bf01      	itttt	eq
 8001820:	6819      	ldreq	r1, [r3, #0]
 8001822:	685b      	ldreq	r3, [r3, #4]
 8001824:	1809      	addeq	r1, r1, r0
 8001826:	6021      	streq	r1, [r4, #0]
 8001828:	e7ed      	b.n	8001806 <_free_r+0x1e>
 800182a:	461a      	mov	r2, r3
 800182c:	685b      	ldr	r3, [r3, #4]
 800182e:	b10b      	cbz	r3, 8001834 <_free_r+0x4c>
 8001830:	42a3      	cmp	r3, r4
 8001832:	d9fa      	bls.n	800182a <_free_r+0x42>
 8001834:	6811      	ldr	r1, [r2, #0]
 8001836:	1850      	adds	r0, r2, r1
 8001838:	42a0      	cmp	r0, r4
 800183a:	d10b      	bne.n	8001854 <_free_r+0x6c>
 800183c:	6820      	ldr	r0, [r4, #0]
 800183e:	4401      	add	r1, r0
 8001840:	1850      	adds	r0, r2, r1
 8001842:	4283      	cmp	r3, r0
 8001844:	6011      	str	r1, [r2, #0]
 8001846:	d1e0      	bne.n	800180a <_free_r+0x22>
 8001848:	6818      	ldr	r0, [r3, #0]
 800184a:	685b      	ldr	r3, [r3, #4]
 800184c:	4408      	add	r0, r1
 800184e:	6010      	str	r0, [r2, #0]
 8001850:	6053      	str	r3, [r2, #4]
 8001852:	e7da      	b.n	800180a <_free_r+0x22>
 8001854:	d902      	bls.n	800185c <_free_r+0x74>
 8001856:	230c      	movs	r3, #12
 8001858:	602b      	str	r3, [r5, #0]
 800185a:	e7d6      	b.n	800180a <_free_r+0x22>
 800185c:	6820      	ldr	r0, [r4, #0]
 800185e:	1821      	adds	r1, r4, r0
 8001860:	428b      	cmp	r3, r1
 8001862:	bf01      	itttt	eq
 8001864:	6819      	ldreq	r1, [r3, #0]
 8001866:	685b      	ldreq	r3, [r3, #4]
 8001868:	1809      	addeq	r1, r1, r0
 800186a:	6021      	streq	r1, [r4, #0]
 800186c:	6063      	str	r3, [r4, #4]
 800186e:	6054      	str	r4, [r2, #4]
 8001870:	e7cb      	b.n	800180a <_free_r+0x22>
 8001872:	bd38      	pop	{r3, r4, r5, pc}
 8001874:	2000020c 	.word	0x2000020c

08001878 <sbrk_aligned>:
 8001878:	b570      	push	{r4, r5, r6, lr}
 800187a:	4e0f      	ldr	r6, [pc, #60]	@ (80018b8 <sbrk_aligned+0x40>)
 800187c:	460c      	mov	r4, r1
 800187e:	6831      	ldr	r1, [r6, #0]
 8001880:	4605      	mov	r5, r0
 8001882:	b911      	cbnz	r1, 800188a <sbrk_aligned+0x12>
 8001884:	f000 fbaa 	bl	8001fdc <_sbrk_r>
 8001888:	6030      	str	r0, [r6, #0]
 800188a:	4621      	mov	r1, r4
 800188c:	4628      	mov	r0, r5
 800188e:	f000 fba5 	bl	8001fdc <_sbrk_r>
 8001892:	1c43      	adds	r3, r0, #1
 8001894:	d103      	bne.n	800189e <sbrk_aligned+0x26>
 8001896:	f04f 34ff 	mov.w	r4, #4294967295
 800189a:	4620      	mov	r0, r4
 800189c:	bd70      	pop	{r4, r5, r6, pc}
 800189e:	1cc4      	adds	r4, r0, #3
 80018a0:	f024 0403 	bic.w	r4, r4, #3
 80018a4:	42a0      	cmp	r0, r4
 80018a6:	d0f8      	beq.n	800189a <sbrk_aligned+0x22>
 80018a8:	1a21      	subs	r1, r4, r0
 80018aa:	4628      	mov	r0, r5
 80018ac:	f000 fb96 	bl	8001fdc <_sbrk_r>
 80018b0:	3001      	adds	r0, #1
 80018b2:	d1f2      	bne.n	800189a <sbrk_aligned+0x22>
 80018b4:	e7ef      	b.n	8001896 <sbrk_aligned+0x1e>
 80018b6:	bf00      	nop
 80018b8:	20000208 	.word	0x20000208

080018bc <_malloc_r>:
 80018bc:	e92d 43f8 	stmdb	sp!, {r3, r4, r5, r6, r7, r8, r9, lr}
 80018c0:	1ccd      	adds	r5, r1, #3
 80018c2:	f025 0503 	bic.w	r5, r5, #3
 80018c6:	3508      	adds	r5, #8
 80018c8:	2d0c      	cmp	r5, #12
 80018ca:	bf38      	it	cc
 80018cc:	250c      	movcc	r5, #12
 80018ce:	2d00      	cmp	r5, #0
 80018d0:	4606      	mov	r6, r0
 80018d2:	db01      	blt.n	80018d8 <_malloc_r+0x1c>
 80018d4:	42a9      	cmp	r1, r5
 80018d6:	d904      	bls.n	80018e2 <_malloc_r+0x26>
 80018d8:	230c      	movs	r3, #12
 80018da:	6033      	str	r3, [r6, #0]
 80018dc:	2000      	movs	r0, #0
 80018de:	e8bd 83f8 	ldmia.w	sp!, {r3, r4, r5, r6, r7, r8, r9, pc}
 80018e2:	f8df 80d4 	ldr.w	r8, [pc, #212]	@ 80019b8 <_malloc_r+0xfc>
 80018e6:	f000 f869 	bl	80019bc <__malloc_lock>
 80018ea:	f8d8 3000 	ldr.w	r3, [r8]
 80018ee:	461c      	mov	r4, r3
 80018f0:	bb44      	cbnz	r4, 8001944 <_malloc_r+0x88>
 80018f2:	4629      	mov	r1, r5
 80018f4:	4630      	mov	r0, r6
 80018f6:	f7ff ffbf 	bl	8001878 <sbrk_aligned>
 80018fa:	1c43      	adds	r3, r0, #1
 80018fc:	4604      	mov	r4, r0
 80018fe:	d158      	bne.n	80019b2 <_malloc_r+0xf6>
 8001900:	f8d8 4000 	ldr.w	r4, [r8]
 8001904:	4627      	mov	r7, r4
 8001906:	2f00      	cmp	r7, #0
 8001908:	d143      	bne.n	8001992 <_malloc_r+0xd6>
 800190a:	2c00      	cmp	r4, #0
 800190c:	d04b      	beq.n	80019a6 <_malloc_r+0xea>
 800190e:	6823      	ldr	r3, [r4, #0]
 8001910:	4639      	mov	r1, r7
 8001912:	4630      	mov	r0, r6
 8001914:	eb04 0903 	add.w	r9, r4, r3
 8001918:	f000 fb60 	bl	8001fdc <_sbrk_r>
 800191c:	4581      	cmp	r9, r0
 800191e:	d142      	bne.n	80019a6 <_malloc_r+0xea>
 8001920:	6821      	ldr	r1, [r4, #0]
 8001922:	4630      	mov	r0, r6
 8001924:	1a6d      	subs	r5, r5, r1
 8001926:	4629      	mov	r1, r5
 8001928:	f7ff ffa6 	bl	8001878 <sbrk_aligned>
 800192c:	3001      	adds	r0, #1
 800192e:	d03a      	beq.n	80019a6 <_malloc_r+0xea>
 8001930:	6823      	ldr	r3, [r4, #0]
 8001932:	442b      	add	r3, r5
 8001934:	6023      	str	r3, [r4, #0]
 8001936:	f8d8 3000 	ldr.w	r3, [r8]
 800193a:	685a      	ldr	r2, [r3, #4]
 800193c:	bb62      	cbnz	r2, 8001998 <_malloc_r+0xdc>
 800193e:	f8c8 7000 	str.w	r7, [r8]
 8001942:	e00f      	b.n	8001964 <_malloc_r+0xa8>
 8001944:	6822      	ldr	r2, [r4, #0]
 8001946:	1b52      	subs	r2, r2, r5
 8001948:	d420      	bmi.n	800198c <_malloc_r+0xd0>
 800194a:	2a0b      	cmp	r2, #11
 800194c:	d917      	bls.n	800197e <_malloc_r+0xc2>
 800194e:	1961      	adds	r1, r4, r5
 8001950:	42a3      	cmp	r3, r4
 8001952:	6025      	str	r5, [r4, #0]
 8001954:	bf18      	it	ne
 8001956:	6059      	strne	r1, [r3, #4]
 8001958:	6863      	ldr	r3, [r4, #4]
 800195a:	bf08      	it	eq
 800195c:	f8c8 1000 	streq.w	r1, [r8]
 8001960:	5162      	str	r2, [r4, r5]
 8001962:	604b      	str	r3, [r1, #4]
 8001964:	4630      	mov	r0, r6
 8001966:	f000 f82f 	bl	80019c8 <__malloc_unlock>
 800196a:	f104 000b 	add.w	r0, r4, #11
 800196e:	1d23      	adds	r3, r4, #4
 8001970:	f020 0007 	bic.w	r0, r0, #7
 8001974:	1ac2      	subs	r2, r0, r3
 8001976:	bf1c      	itt	ne
 8001978:	1a1b      	subne	r3, r3, r0
 800197a:	50a3      	strne	r3, [r4, r2]
 800197c:	e7af      	b.n	80018de <_malloc_r+0x22>
 800197e:	6862      	ldr	r2, [r4, #4]
 8001980:	42a3      	cmp	r3, r4
 8001982:	bf0c      	ite	eq
 8001984:	f8c8 2000 	streq.w	r2, [r8]
 8001988:	605a      	strne	r2, [r3, #4]
 800198a:	e7eb      	b.n	8001964 <_malloc_r+0xa8>
 800198c:	4623      	mov	r3, r4
 800198e:	6864      	ldr	r4, [r4, #4]
 8001990:	e7ae      	b.n	80018f0 <_malloc_r+0x34>
 8001992:	463c      	mov	r4, r7
 8001994:	687f      	ldr	r7, [r7, #4]
 8001996:	e7b6      	b.n	8001906 <_malloc_r+0x4a>
 8001998:	461a      	mov	r2, r3
 800199a:	685b      	ldr	r3, [r3, #4]
 800199c:	42a3      	cmp	r3, r4
 800199e:	d1fb      	bne.n	8001998 <_malloc_r+0xdc>
 80019a0:	2300      	movs	r3, #0
 80019a2:	6053      	str	r3, [r2, #4]
 80019a4:	e7de      	b.n	8001964 <_malloc_r+0xa8>
 80019a6:	230c      	movs	r3, #12
 80019a8:	4630      	mov	r0, r6
 80019aa:	6033      	str	r3, [r6, #0]
 80019ac:	f000 f80c 	bl	80019c8 <__malloc_unlock>
 80019b0:	e794      	b.n	80018dc <_malloc_r+0x20>
 80019b2:	6005      	str	r5, [r0, #0]
 80019b4:	e7d6      	b.n	8001964 <_malloc_r+0xa8>
 80019b6:	bf00      	nop
 80019b8:	2000020c 	.word	0x2000020c

080019bc <__malloc_lock>:
 80019bc:	4801      	ldr	r0, [pc, #4]	@ (80019c4 <__malloc_lock+0x8>)
 80019be:	f7ff bf11 	b.w	80017e4 <__retarget_lock_acquire_recursive>
 80019c2:	bf00      	nop
 80019c4:	20000204 	.word	0x20000204

080019c8 <__malloc_unlock>:
 80019c8:	4801      	ldr	r0, [pc, #4]	@ (80019d0 <__malloc_unlock+0x8>)
 80019ca:	f7ff bf0c 	b.w	80017e6 <__retarget_lock_release_recursive>
 80019ce:	bf00      	nop
 80019d0:	20000204 	.word	0x20000204

080019d4 <__ssputs_r>:
 80019d4:	e92d 47f0 	stmdb	sp!, {r4, r5, r6, r7, r8, r9, sl, lr}
 80019d8:	461f      	mov	r7, r3
 80019da:	688e      	ldr	r6, [r1, #8]
 80019dc:	4682      	mov	sl, r0
 80019de:	42be      	cmp	r6, r7
 80019e0:	460c      	mov	r4, r1
 80019e2:	4690      	mov	r8, r2
 80019e4:	680b      	ldr	r3, [r1, #0]
 80019e6:	d82d      	bhi.n	8001a44 <__ssputs_r+0x70>
 80019e8:	f9b1 200c 	ldrsh.w	r2, [r1, #12]
 80019ec:	f412 6f90 	tst.w	r2, #1152	@ 0x480
 80019f0:	d026      	beq.n	8001a40 <__ssputs_r+0x6c>
 80019f2:	6965      	ldr	r5, [r4, #20]
 80019f4:	6909      	ldr	r1, [r1, #16]
 80019f6:	eb05 0545 	add.w	r5, r5, r5, lsl #1
 80019fa:	eba3 0901 	sub.w	r9, r3, r1
 80019fe:	eb05 75d5 	add.w	r5, r5, r5, lsr #31
 8001a02:	1c7b      	adds	r3, r7, #1
 8001a04:	444b      	add	r3, r9
 8001a06:	106d      	asrs	r5, r5, #1
 8001a08:	429d      	cmp	r5, r3
 8001a0a:	bf38      	it	cc
 8001a0c:	461d      	movcc	r5, r3
 8001a0e:	0553      	lsls	r3, r2, #21
 8001a10:	d527      	bpl.n	8001a62 <__ssputs_r+0x8e>
 8001a12:	4629      	mov	r1, r5
 8001a14:	f7ff ff52 	bl	80018bc <_malloc_r>
 8001a18:	4606      	mov	r6, r0
 8001a1a:	b360      	cbz	r0, 8001a76 <__ssputs_r+0xa2>
 8001a1c:	464a      	mov	r2, r9
 8001a1e:	6921      	ldr	r1, [r4, #16]
 8001a20:	f000 fafa 	bl	8002018 <memcpy>
 8001a24:	89a3      	ldrh	r3, [r4, #12]
 8001a26:	f423 6390 	bic.w	r3, r3, #1152	@ 0x480
 8001a2a:	f043 0380 	orr.w	r3, r3, #128	@ 0x80
 8001a2e:	81a3      	strh	r3, [r4, #12]
 8001a30:	6126      	str	r6, [r4, #16]
 8001a32:	444e      	add	r6, r9
 8001a34:	6026      	str	r6, [r4, #0]
 8001a36:	463e      	mov	r6, r7
 8001a38:	6165      	str	r5, [r4, #20]
 8001a3a:	eba5 0509 	sub.w	r5, r5, r9
 8001a3e:	60a5      	str	r5, [r4, #8]
 8001a40:	42be      	cmp	r6, r7
 8001a42:	d900      	bls.n	8001a46 <__ssputs_r+0x72>
 8001a44:	463e      	mov	r6, r7
 8001a46:	4632      	mov	r2, r6
 8001a48:	4641      	mov	r1, r8
 8001a4a:	6820      	ldr	r0, [r4, #0]
 8001a4c:	f000 faac 	bl	8001fa8 <memmove>
 8001a50:	2000      	movs	r0, #0
 8001a52:	68a3      	ldr	r3, [r4, #8]
 8001a54:	1b9b      	subs	r3, r3, r6
 8001a56:	60a3      	str	r3, [r4, #8]
 8001a58:	6823      	ldr	r3, [r4, #0]
 8001a5a:	4433      	add	r3, r6
 8001a5c:	6023      	str	r3, [r4, #0]
 8001a5e:	e8bd 87f0 	ldmia.w	sp!, {r4, r5, r6, r7, r8, r9, sl, pc}
 8001a62:	462a      	mov	r2, r5
 8001a64:	f000 fae6 	bl	8002034 <_realloc_r>
 8001a68:	4606      	mov	r6, r0
 8001a6a:	2800      	cmp	r0, #0
 8001a6c:	d1e0      	bne.n	8001a30 <__ssputs_r+0x5c>
 8001a6e:	4650      	mov	r0, sl
 8001a70:	6921      	ldr	r1, [r4, #16]
 8001a72:	f7ff feb9 	bl	80017e8 <_free_r>
 8001a76:	230c      	movs	r3, #12
 8001a78:	f8ca 3000 	str.w	r3, [sl]
 8001a7c:	89a3      	ldrh	r3, [r4, #12]
 8001a7e:	f04f 30ff 	mov.w	r0, #4294967295
 8001a82:	f043 0340 	orr.w	r3, r3, #64	@ 0x40
 8001a86:	81a3      	strh	r3, [r4, #12]
 8001a88:	e7e9      	b.n	8001a5e <__ssputs_r+0x8a>
	...

08001a8c <_svfiprintf_r>:
 8001a8c:	e92d 4ff0 	stmdb	sp!, {r4, r5, r6, r7, r8, r9, sl, fp, lr}
 8001a90:	4698      	mov	r8, r3
 8001a92:	898b      	ldrh	r3, [r1, #12]
 8001a94:	4607      	mov	r7, r0
 8001a96:	061b      	lsls	r3, r3, #24
 8001a98:	460d      	mov	r5, r1
 8001a9a:	4614      	mov	r4, r2
 8001a9c:	b09d      	sub	sp, #116	@ 0x74
 8001a9e:	d510      	bpl.n	8001ac2 <_svfiprintf_r+0x36>
 8001aa0:	690b      	ldr	r3, [r1, #16]
 8001aa2:	b973      	cbnz	r3, 8001ac2 <_svfiprintf_r+0x36>
 8001aa4:	2140      	movs	r1, #64	@ 0x40
 8001aa6:	f7ff ff09 	bl	80018bc <_malloc_r>
 8001aaa:	6028      	str	r0, [r5, #0]
 8001aac:	6128      	str	r0, [r5, #16]
 8001aae:	b930      	cbnz	r0, 8001abe <_svfiprintf_r+0x32>
 8001ab0:	230c      	movs	r3, #12
 8001ab2:	603b      	str	r3, [r7, #0]
 8001ab4:	f04f 30ff 	mov.w	r0, #4294967295
 8001ab8:	b01d      	add	sp, #116	@ 0x74
 8001aba:	e8bd 8ff0 	ldmia.w	sp!, {r4, r5, r6, r7, r8, r9, sl, fp, pc}
 8001abe:	2340      	movs	r3, #64	@ 0x40
 8001ac0:	616b      	str	r3, [r5, #20]
 8001ac2:	2300      	movs	r3, #0
 8001ac4:	9309      	str	r3, [sp, #36]	@ 0x24
 8001ac6:	2320      	movs	r3, #32
 8001ac8:	f88d 3029 	strb.w	r3, [sp, #41]	@ 0x29
 8001acc:	2330      	movs	r3, #48	@ 0x30
 8001ace:	f04f 0901 	mov.w	r9, #1
 8001ad2:	f8cd 800c 	str.w	r8, [sp, #12]
 8001ad6:	f8df 8198 	ldr.w	r8, [pc, #408]	@ 8001c70 <_svfiprintf_r+0x1e4>
 8001ada:	f88d 302a 	strb.w	r3, [sp, #42]	@ 0x2a
 8001ade:	4623      	mov	r3, r4
 8001ae0:	469a      	mov	sl, r3
 8001ae2:	f813 2b01 	ldrb.w	r2, [r3], #1
 8001ae6:	b10a      	cbz	r2, 8001aec <_svfiprintf_r+0x60>
 8001ae8:	2a25      	cmp	r2, #37	@ 0x25
 8001aea:	d1f9      	bne.n	8001ae0 <_svfiprintf_r+0x54>
 8001aec:	ebba 0b04 	subs.w	fp, sl, r4
 8001af0:	d00b      	beq.n	8001b0a <_svfiprintf_r+0x7e>
 8001af2:	465b      	mov	r3, fp
 8001af4:	4622      	mov	r2, r4
 8001af6:	4629      	mov	r1, r5
 8001af8:	4638      	mov	r0, r7
 8001afa:	f7ff ff6b 	bl	80019d4 <__ssputs_r>
 8001afe:	3001      	adds	r0, #1
 8001b00:	f000 80a7 	beq.w	8001c52 <_svfiprintf_r+0x1c6>
 8001b04:	9a09      	ldr	r2, [sp, #36]	@ 0x24
 8001b06:	445a      	add	r2, fp
 8001b08:	9209      	str	r2, [sp, #36]	@ 0x24
 8001b0a:	f89a 3000 	ldrb.w	r3, [sl]
 8001b0e:	2b00      	cmp	r3, #0
 8001b10:	f000 809f 	beq.w	8001c52 <_svfiprintf_r+0x1c6>
 8001b14:	2300      	movs	r3, #0
 8001b16:	f04f 32ff 	mov.w	r2, #4294967295
 8001b1a:	e9cd 2305 	strd	r2, r3, [sp, #20]
 8001b1e:	f10a 0a01 	add.w	sl, sl, #1
 8001b22:	9304      	str	r3, [sp, #16]
 8001b24:	9307      	str	r3, [sp, #28]
 8001b26:	f88d 3053 	strb.w	r3, [sp, #83]	@ 0x53
 8001b2a:	931a      	str	r3, [sp, #104]	@ 0x68
 8001b2c:	4654      	mov	r4, sl
 8001b2e:	2205      	movs	r2, #5
 8001b30:	f814 1b01 	ldrb.w	r1, [r4], #1
 8001b34:	484e      	ldr	r0, [pc, #312]	@ (8001c70 <_svfiprintf_r+0x1e4>)
 8001b36:	f000 fa61 	bl	8001ffc <memchr>
 8001b3a:	9a04      	ldr	r2, [sp, #16]
 8001b3c:	b9d8      	cbnz	r0, 8001b76 <_svfiprintf_r+0xea>
 8001b3e:	06d0      	lsls	r0, r2, #27
 8001b40:	bf44      	itt	mi
 8001b42:	2320      	movmi	r3, #32
 8001b44:	f88d 3053 	strbmi.w	r3, [sp, #83]	@ 0x53
 8001b48:	0711      	lsls	r1, r2, #28
 8001b4a:	bf44      	itt	mi
 8001b4c:	232b      	movmi	r3, #43	@ 0x2b
 8001b4e:	f88d 3053 	strbmi.w	r3, [sp, #83]	@ 0x53
 8001b52:	f89a 3000 	ldrb.w	r3, [sl]
 8001b56:	2b2a      	cmp	r3, #42	@ 0x2a
 8001b58:	d015      	beq.n	8001b86 <_svfiprintf_r+0xfa>
 8001b5a:	4654      	mov	r4, sl
 8001b5c:	2000      	movs	r0, #0
 8001b5e:	f04f 0c0a 	mov.w	ip, #10
 8001b62:	9a07      	ldr	r2, [sp, #28]
 8001b64:	4621      	mov	r1, r4
 8001b66:	f811 3b01 	ldrb.w	r3, [r1], #1
 8001b6a:	3b30      	subs	r3, #48	@ 0x30
 8001b6c:	2b09      	cmp	r3, #9
 8001b6e:	d94b      	bls.n	8001c08 <_svfiprintf_r+0x17c>
 8001b70:	b1b0      	cbz	r0, 8001ba0 <_svfiprintf_r+0x114>
 8001b72:	9207      	str	r2, [sp, #28]
 8001b74:	e014      	b.n	8001ba0 <_svfiprintf_r+0x114>
 8001b76:	eba0 0308 	sub.w	r3, r0, r8
 8001b7a:	fa09 f303 	lsl.w	r3, r9, r3
 8001b7e:	4313      	orrs	r3, r2
 8001b80:	46a2      	mov	sl, r4
 8001b82:	9304      	str	r3, [sp, #16]
 8001b84:	e7d2      	b.n	8001b2c <_svfiprintf_r+0xa0>
 8001b86:	9b03      	ldr	r3, [sp, #12]
 8001b88:	1d19      	adds	r1, r3, #4
 8001b8a:	681b      	ldr	r3, [r3, #0]
 8001b8c:	9103      	str	r1, [sp, #12]
 8001b8e:	2b00      	cmp	r3, #0
 8001b90:	bfbb      	ittet	lt
 8001b92:	425b      	neglt	r3, r3
 8001b94:	f042 0202 	orrlt.w	r2, r2, #2
 8001b98:	9307      	strge	r3, [sp, #28]
 8001b9a:	9307      	strlt	r3, [sp, #28]
 8001b9c:	bfb8      	it	lt
 8001b9e:	9204      	strlt	r2, [sp, #16]
 8001ba0:	7823      	ldrb	r3, [r4, #0]
 8001ba2:	2b2e      	cmp	r3, #46	@ 0x2e
 8001ba4:	d10a      	bne.n	8001bbc <_svfiprintf_r+0x130>
 8001ba6:	7863      	ldrb	r3, [r4, #1]
 8001ba8:	2b2a      	cmp	r3, #42	@ 0x2a
 8001baa:	d132      	bne.n	8001c12 <_svfiprintf_r+0x186>
 8001bac:	9b03      	ldr	r3, [sp, #12]
 8001bae:	3402      	adds	r4, #2
 8001bb0:	1d1a      	adds	r2, r3, #4
 8001bb2:	681b      	ldr	r3, [r3, #0]
 8001bb4:	9203      	str	r2, [sp, #12]
 8001bb6:	ea43 73e3 	orr.w	r3, r3, r3, asr #31
 8001bba:	9305      	str	r3, [sp, #20]
 8001bbc:	f8df a0b4 	ldr.w	sl, [pc, #180]	@ 8001c74 <_svfiprintf_r+0x1e8>
 8001bc0:	2203      	movs	r2, #3
 8001bc2:	4650      	mov	r0, sl
 8001bc4:	7821      	ldrb	r1, [r4, #0]
 8001bc6:	f000 fa19 	bl	8001ffc <memchr>
 8001bca:	b138      	cbz	r0, 8001bdc <_svfiprintf_r+0x150>
 8001bcc:	2240      	movs	r2, #64	@ 0x40
 8001bce:	9b04      	ldr	r3, [sp, #16]
 8001bd0:	eba0 000a 	sub.w	r0, r0, sl
 8001bd4:	4082      	lsls	r2, r0
 8001bd6:	4313      	orrs	r3, r2
 8001bd8:	3401      	adds	r4, #1
 8001bda:	9304      	str	r3, [sp, #16]
 8001bdc:	f814 1b01 	ldrb.w	r1, [r4], #1
 8001be0:	2206      	movs	r2, #6
 8001be2:	4825      	ldr	r0, [pc, #148]	@ (8001c78 <_svfiprintf_r+0x1ec>)
 8001be4:	f88d 1028 	strb.w	r1, [sp, #40]	@ 0x28
 8001be8:	f000 fa08 	bl	8001ffc <memchr>
 8001bec:	2800      	cmp	r0, #0
 8001bee:	d036      	beq.n	8001c5e <_svfiprintf_r+0x1d2>
 8001bf0:	4b22      	ldr	r3, [pc, #136]	@ (8001c7c <_svfiprintf_r+0x1f0>)
 8001bf2:	bb1b      	cbnz	r3, 8001c3c <_svfiprintf_r+0x1b0>
 8001bf4:	9b03      	ldr	r3, [sp, #12]
 8001bf6:	3307      	adds	r3, #7
 8001bf8:	f023 0307 	bic.w	r3, r3, #7
 8001bfc:	3308      	adds	r3, #8
 8001bfe:	9303      	str	r3, [sp, #12]
 8001c00:	9b09      	ldr	r3, [sp, #36]	@ 0x24
 8001c02:	4433      	add	r3, r6
 8001c04:	9309      	str	r3, [sp, #36]	@ 0x24
 8001c06:	e76a      	b.n	8001ade <_svfiprintf_r+0x52>
 8001c08:	460c      	mov	r4, r1
 8001c0a:	2001      	movs	r0, #1
 8001c0c:	fb0c 3202 	mla	r2, ip, r2, r3
 8001c10:	e7a8      	b.n	8001b64 <_svfiprintf_r+0xd8>
 8001c12:	2300      	movs	r3, #0
 8001c14:	f04f 0c0a 	mov.w	ip, #10
 8001c18:	4619      	mov	r1, r3
 8001c1a:	3401      	adds	r4, #1
 8001c1c:	9305      	str	r3, [sp, #20]
 8001c1e:	4620      	mov	r0, r4
 8001c20:	f810 2b01 	ldrb.w	r2, [r0], #1
 8001c24:	3a30      	subs	r2, #48	@ 0x30
 8001c26:	2a09      	cmp	r2, #9
 8001c28:	d903      	bls.n	8001c32 <_svfiprintf_r+0x1a6>
 8001c2a:	2b00      	cmp	r3, #0
 8001c2c:	d0c6      	beq.n	8001bbc <_svfiprintf_r+0x130>
 8001c2e:	9105      	str	r1, [sp, #20]
 8001c30:	e7c4      	b.n	8001bbc <_svfiprintf_r+0x130>
 8001c32:	4604      	mov	r4, r0
 8001c34:	2301      	movs	r3, #1
 8001c36:	fb0c 2101 	mla	r1, ip, r1, r2
 8001c3a:	e7f0      	b.n	8001c1e <_svfiprintf_r+0x192>
 8001c3c:	ab03      	add	r3, sp, #12
 8001c3e:	9300      	str	r3, [sp, #0]
 8001c40:	462a      	mov	r2, r5
 8001c42:	4638      	mov	r0, r7
 8001c44:	4b0e      	ldr	r3, [pc, #56]	@ (8001c80 <_svfiprintf_r+0x1f4>)
 8001c46:	a904      	add	r1, sp, #16
 8001c48:	f3af 8000 	nop.w
 8001c4c:	1c42      	adds	r2, r0, #1
 8001c4e:	4606      	mov	r6, r0
 8001c50:	d1d6      	bne.n	8001c00 <_svfiprintf_r+0x174>
 8001c52:	89ab      	ldrh	r3, [r5, #12]
 8001c54:	065b      	lsls	r3, r3, #25
 8001c56:	f53f af2d 	bmi.w	8001ab4 <_svfiprintf_r+0x28>
 8001c5a:	9809      	ldr	r0, [sp, #36]	@ 0x24
 8001c5c:	e72c      	b.n	8001ab8 <_svfiprintf_r+0x2c>
 8001c5e:	ab03      	add	r3, sp, #12
 8001c60:	9300      	str	r3, [sp, #0]
 8001c62:	462a      	mov	r2, r5
 8001c64:	4638      	mov	r0, r7
 8001c66:	4b06      	ldr	r3, [pc, #24]	@ (8001c80 <_svfiprintf_r+0x1f4>)
 8001c68:	a904      	add	r1, sp, #16
 8001c6a:	f000 f87d 	bl	8001d68 <_printf_i>
 8001c6e:	e7ed      	b.n	8001c4c <_svfiprintf_r+0x1c0>
 8001c70:	08002102 	.word	0x08002102
 8001c74:	08002108 	.word	0x08002108
 8001c78:	0800210c 	.word	0x0800210c
 8001c7c:	00000000 	.word	0x00000000
 8001c80:	080019d5 	.word	0x080019d5

08001c84 <_printf_common>:
 8001c84:	e92d 47f0 	stmdb	sp!, {r4, r5, r6, r7, r8, r9, sl, lr}
 8001c88:	4616      	mov	r6, r2
 8001c8a:	4698      	mov	r8, r3
 8001c8c:	688a      	ldr	r2, [r1, #8]
 8001c8e:	690b      	ldr	r3, [r1, #16]
 8001c90:	4607      	mov	r7, r0
 8001c92:	4293      	cmp	r3, r2
 8001c94:	bfb8      	it	lt
 8001c96:	4613      	movlt	r3, r2
 8001c98:	6033      	str	r3, [r6, #0]
 8001c9a:	f891 2043 	ldrb.w	r2, [r1, #67]	@ 0x43
 8001c9e:	460c      	mov	r4, r1
 8001ca0:	f8dd 9020 	ldr.w	r9, [sp, #32]
 8001ca4:	b10a      	cbz	r2, 8001caa <_printf_common+0x26>
 8001ca6:	3301      	adds	r3, #1
 8001ca8:	6033      	str	r3, [r6, #0]
 8001caa:	6823      	ldr	r3, [r4, #0]
 8001cac:	0699      	lsls	r1, r3, #26
 8001cae:	bf42      	ittt	mi
 8001cb0:	6833      	ldrmi	r3, [r6, #0]
 8001cb2:	3302      	addmi	r3, #2
 8001cb4:	6033      	strmi	r3, [r6, #0]
 8001cb6:	6825      	ldr	r5, [r4, #0]
 8001cb8:	f015 0506 	ands.w	r5, r5, #6
 8001cbc:	d106      	bne.n	8001ccc <_printf_common+0x48>
 8001cbe:	f104 0a19 	add.w	sl, r4, #25
 8001cc2:	68e3      	ldr	r3, [r4, #12]
 8001cc4:	6832      	ldr	r2, [r6, #0]
 8001cc6:	1a9b      	subs	r3, r3, r2
 8001cc8:	42ab      	cmp	r3, r5
 8001cca:	dc2b      	bgt.n	8001d24 <_printf_common+0xa0>
 8001ccc:	f894 3043 	ldrb.w	r3, [r4, #67]	@ 0x43
 8001cd0:	6822      	ldr	r2, [r4, #0]
 8001cd2:	3b00      	subs	r3, #0
 8001cd4:	bf18      	it	ne
 8001cd6:	2301      	movne	r3, #1
 8001cd8:	0692      	lsls	r2, r2, #26
 8001cda:	d430      	bmi.n	8001d3e <_printf_common+0xba>
 8001cdc:	4641      	mov	r1, r8
 8001cde:	4638      	mov	r0, r7
 8001ce0:	f104 0243 	add.w	r2, r4, #67	@ 0x43
 8001ce4:	47c8      	blx	r9
 8001ce6:	3001      	adds	r0, #1
 8001ce8:	d023      	beq.n	8001d32 <_printf_common+0xae>
 8001cea:	6823      	ldr	r3, [r4, #0]
 8001cec:	6922      	ldr	r2, [r4, #16]
 8001cee:	f003 0306 	and.w	r3, r3, #6
 8001cf2:	2b04      	cmp	r3, #4
 8001cf4:	bf14      	ite	ne
 8001cf6:	2500      	movne	r5, #0
 8001cf8:	6833      	ldreq	r3, [r6, #0]
 8001cfa:	f04f 0600 	mov.w	r6, #0
 8001cfe:	bf08      	it	eq
 8001d00:	68e5      	ldreq	r5, [r4, #12]
 8001d02:	f104 041a 	add.w	r4, r4, #26
 8001d06:	bf08      	it	eq
 8001d08:	1aed      	subeq	r5, r5, r3
 8001d0a:	f854 3c12 	ldr.w	r3, [r4, #-18]
 8001d0e:	bf08      	it	eq
 8001d10:	ea25 75e5 	biceq.w	r5, r5, r5, asr #31
 8001d14:	4293      	cmp	r3, r2
 8001d16:	bfc4      	itt	gt
 8001d18:	1a9b      	subgt	r3, r3, r2
 8001d1a:	18ed      	addgt	r5, r5, r3
 8001d1c:	42b5      	cmp	r5, r6
 8001d1e:	d11a      	bne.n	8001d56 <_printf_common+0xd2>
 8001d20:	2000      	movs	r0, #0
 8001d22:	e008      	b.n	8001d36 <_printf_common+0xb2>
 8001d24:	2301      	movs	r3, #1
 8001d26:	4652      	mov	r2, sl
 8001d28:	4641      	mov	r1, r8
 8001d2a:	4638      	mov	r0, r7
 8001d2c:	47c8      	blx	r9
 8001d2e:	3001      	adds	r0, #1
 8001d30:	d103      	bne.n	8001d3a <_printf_common+0xb6>
 8001d32:	f04f 30ff 	mov.w	r0, #4294967295
 8001d36:	e8bd 87f0 	ldmia.w	sp!, {r4, r5, r6, r7, r8, r9, sl, pc}
 8001d3a:	3501      	adds	r5, #1
 8001d3c:	e7c1      	b.n	8001cc2 <_printf_common+0x3e>
 8001d3e:	2030      	movs	r0, #48	@ 0x30
 8001d40:	18e1      	adds	r1, r4, r3
 8001d42:	f881 0043 	strb.w	r0, [r1, #67]	@ 0x43
 8001d46:	1c5a      	adds	r2, r3, #1
 8001d48:	f894 1045 	ldrb.w	r1, [r4, #69]	@ 0x45
 8001d4c:	4422      	add	r2, r4
 8001d4e:	3302      	adds	r3, #2
 8001d50:	f882 1043 	strb.w	r1, [r2, #67]	@ 0x43
 8001d54:	e7c2      	b.n	8001cdc <_printf_common+0x58>
 8001d56:	2301      	movs	r3, #1
 8001d58:	4622      	mov	r2, r4
 8001d5a:	4641      	mov	r1, r8
 8001d5c:	4638      	mov	r0, r7
 8001d5e:	47c8      	blx	r9
 8001d60:	3001      	adds	r0, #1
 8001d62:	d0e6      	beq.n	8001d32 <_printf_common+0xae>
 8001d64:	3601      	adds	r6, #1
 8001d66:	e7d9      	b.n	8001d1c <_printf_common+0x98>

08001d68 <_printf_i>:
 8001d68:	e92d 47ff 	stmdb	sp!, {r0, r1, r2, r3, r4, r5, r6, r7, r8, r9, sl, lr}
 8001d6c:	7e0f      	ldrb	r7, [r1, #24]
 8001d6e:	4691      	mov	r9, r2
 8001d70:	2f78      	cmp	r7, #120	@ 0x78
 8001d72:	4680      	mov	r8, r0
 8001d74:	460c      	mov	r4, r1
 8001d76:	469a      	mov	sl, r3
 8001d78:	9e0c      	ldr	r6, [sp, #48]	@ 0x30
 8001d7a:	f101 0243 	add.w	r2, r1, #67	@ 0x43
 8001d7e:	d807      	bhi.n	8001d90 <_printf_i+0x28>
 8001d80:	2f62      	cmp	r7, #98	@ 0x62
 8001d82:	d80a      	bhi.n	8001d9a <_printf_i+0x32>
 8001d84:	2f00      	cmp	r7, #0
 8001d86:	f000 80d3 	beq.w	8001f30 <_printf_i+0x1c8>
 8001d8a:	2f58      	cmp	r7, #88	@ 0x58
 8001d8c:	f000 80ba 	beq.w	8001f04 <_printf_i+0x19c>
 8001d90:	f104 0642 	add.w	r6, r4, #66	@ 0x42
 8001d94:	f884 7042 	strb.w	r7, [r4, #66]	@ 0x42
 8001d98:	e03a      	b.n	8001e10 <_printf_i+0xa8>
 8001d9a:	f1a7 0363 	sub.w	r3, r7, #99	@ 0x63
 8001d9e:	2b15      	cmp	r3, #21
 8001da0:	d8f6      	bhi.n	8001d90 <_printf_i+0x28>
 8001da2:	a101      	add	r1, pc, #4	@ (adr r1, 8001da8 <_printf_i+0x40>)
 8001da4:	f851 f023 	ldr.w	pc, [r1, r3, lsl #2]
 8001da8:	08001e01 	.word	0x08001e01
 8001dac:	08001e15 	.word	0x08001e15
 8001db0:	08001d91 	.word	0x08001d91
 8001db4:	08001d91 	.word	0x08001d91
 8001db8:	08001d91 	.word	0x08001d91
 8001dbc:	08001d91 	.word	0x08001d91
 8001dc0:	08001e15 	.word	0x08001e15
 8001dc4:	08001d91 	.word	0x08001d91
 8001dc8:	08001d91 	.word	0x08001d91
 8001dcc:	08001d91 	.word	0x08001d91
 8001dd0:	08001d91 	.word	0x08001d91
 8001dd4:	08001f17 	.word	0x08001f17
 8001dd8:	08001e3f 	.word	0x08001e3f
 8001ddc:	08001ed1 	.word	0x08001ed1
 8001de0:	08001d91 	.word	0x08001d91
 8001de4:	08001d91 	.word	0x08001d91
 8001de8:	08001f39 	.word	0x08001f39
 8001dec:	08001d91 	.word	0x08001d91
 8001df0:	08001e3f 	.word	0x08001e3f
 8001df4:	08001d91 	.word	0x08001d91
 8001df8:	08001d91 	.word	0x08001d91
 8001dfc:	08001ed9 	.word	0x08001ed9
 8001e00:	6833      	ldr	r3, [r6, #0]
 8001e02:	1d1a      	adds	r2, r3, #4
 8001e04:	681b      	ldr	r3, [r3, #0]
 8001e06:	6032      	str	r2, [r6, #0]
 8001e08:	f104 0642 	add.w	r6, r4, #66	@ 0x42
 8001e0c:	f884 3042 	strb.w	r3, [r4, #66]	@ 0x42
 8001e10:	2301      	movs	r3, #1
 8001e12:	e09e      	b.n	8001f52 <_printf_i+0x1ea>
 8001e14:	6833      	ldr	r3, [r6, #0]
 8001e16:	6820      	ldr	r0, [r4, #0]
 8001e18:	1d19      	adds	r1, r3, #4
 8001e1a:	6031      	str	r1, [r6, #0]
 8001e1c:	0606      	lsls	r6, r0, #24
 8001e1e:	d501      	bpl.n	8001e24 <_printf_i+0xbc>
 8001e20:	681d      	ldr	r5, [r3, #0]
 8001e22:	e003      	b.n	8001e2c <_printf_i+0xc4>
 8001e24:	0645      	lsls	r5, r0, #25
 8001e26:	d5fb      	bpl.n	8001e20 <_printf_i+0xb8>
 8001e28:	f9b3 5000 	ldrsh.w	r5, [r3]
 8001e2c:	2d00      	cmp	r5, #0
 8001e2e:	da03      	bge.n	8001e38 <_printf_i+0xd0>
 8001e30:	232d      	movs	r3, #45	@ 0x2d
 8001e32:	426d      	negs	r5, r5
 8001e34:	f884 3043 	strb.w	r3, [r4, #67]	@ 0x43
 8001e38:	230a      	movs	r3, #10
 8001e3a:	4859      	ldr	r0, [pc, #356]	@ (8001fa0 <_printf_i+0x238>)
 8001e3c:	e011      	b.n	8001e62 <_printf_i+0xfa>
 8001e3e:	6821      	ldr	r1, [r4, #0]
 8001e40:	6833      	ldr	r3, [r6, #0]
 8001e42:	0608      	lsls	r0, r1, #24
 8001e44:	f853 5b04 	ldr.w	r5, [r3], #4
 8001e48:	d402      	bmi.n	8001e50 <_printf_i+0xe8>
 8001e4a:	0649      	lsls	r1, r1, #25
 8001e4c:	bf48      	it	mi
 8001e4e:	b2ad      	uxthmi	r5, r5
 8001e50:	2f6f      	cmp	r7, #111	@ 0x6f
 8001e52:	6033      	str	r3, [r6, #0]
 8001e54:	bf14      	ite	ne
 8001e56:	230a      	movne	r3, #10
 8001e58:	2308      	moveq	r3, #8
 8001e5a:	4851      	ldr	r0, [pc, #324]	@ (8001fa0 <_printf_i+0x238>)
 8001e5c:	2100      	movs	r1, #0
 8001e5e:	f884 1043 	strb.w	r1, [r4, #67]	@ 0x43
 8001e62:	6866      	ldr	r6, [r4, #4]
 8001e64:	2e00      	cmp	r6, #0
 8001e66:	bfa8      	it	ge
 8001e68:	6821      	ldrge	r1, [r4, #0]
 8001e6a:	60a6      	str	r6, [r4, #8]
 8001e6c:	bfa4      	itt	ge
 8001e6e:	f021 0104 	bicge.w	r1, r1, #4
 8001e72:	6021      	strge	r1, [r4, #0]
 8001e74:	b90d      	cbnz	r5, 8001e7a <_printf_i+0x112>
 8001e76:	2e00      	cmp	r6, #0
 8001e78:	d04b      	beq.n	8001f12 <_printf_i+0x1aa>
 8001e7a:	4616      	mov	r6, r2
 8001e7c:	fbb5 f1f3 	udiv	r1, r5, r3
 8001e80:	fb03 5711 	mls	r7, r3, r1, r5
 8001e84:	5dc7      	ldrb	r7, [r0, r7]
 8001e86:	f806 7d01 	strb.w	r7, [r6, #-1]!
 8001e8a:	462f      	mov	r7, r5
 8001e8c:	42bb      	cmp	r3, r7
 8001e8e:	460d      	mov	r5, r1
 8001e90:	d9f4      	bls.n	8001e7c <_printf_i+0x114>
 8001e92:	2b08      	cmp	r3, #8
 8001e94:	d10b      	bne.n	8001eae <_printf_i+0x146>
 8001e96:	6823      	ldr	r3, [r4, #0]
 8001e98:	07df      	lsls	r7, r3, #31
 8001e9a:	d508      	bpl.n	8001eae <_printf_i+0x146>
 8001e9c:	6923      	ldr	r3, [r4, #16]
 8001e9e:	6861      	ldr	r1, [r4, #4]
 8001ea0:	4299      	cmp	r1, r3
 8001ea2:	bfde      	ittt	le
 8001ea4:	2330      	movle	r3, #48	@ 0x30
 8001ea6:	f806 3c01 	strble.w	r3, [r6, #-1]
 8001eaa:	f106 36ff 	addle.w	r6, r6, #4294967295
 8001eae:	1b92      	subs	r2, r2, r6
 8001eb0:	6122      	str	r2, [r4, #16]
 8001eb2:	464b      	mov	r3, r9
 8001eb4:	4621      	mov	r1, r4
 8001eb6:	4640      	mov	r0, r8
 8001eb8:	f8cd a000 	str.w	sl, [sp]
 8001ebc:	aa03      	add	r2, sp, #12
 8001ebe:	f7ff fee1 	bl	8001c84 <_printf_common>
 8001ec2:	3001      	adds	r0, #1
 8001ec4:	d14a      	bne.n	8001f5c <_printf_i+0x1f4>
 8001ec6:	f04f 30ff 	mov.w	r0, #4294967295
 8001eca:	b004      	add	sp, #16
 8001ecc:	e8bd 87f0 	ldmia.w	sp!, {r4, r5, r6, r7, r8, r9, sl, pc}
 8001ed0:	6823      	ldr	r3, [r4, #0]
 8001ed2:	f043 0320 	orr.w	r3, r3, #32
 8001ed6:	6023      	str	r3, [r4, #0]
 8001ed8:	2778      	movs	r7, #120	@ 0x78
 8001eda:	4832      	ldr	r0, [pc, #200]	@ (8001fa4 <_printf_i+0x23c>)
 8001edc:	f884 7045 	strb.w	r7, [r4, #69]	@ 0x45
 8001ee0:	6823      	ldr	r3, [r4, #0]
 8001ee2:	6831      	ldr	r1, [r6, #0]
 8001ee4:	061f      	lsls	r7, r3, #24
 8001ee6:	f851 5b04 	ldr.w	r5, [r1], #4
 8001eea:	d402      	bmi.n	8001ef2 <_printf_i+0x18a>
 8001eec:	065f      	lsls	r7, r3, #25
 8001eee:	bf48      	it	mi
 8001ef0:	b2ad      	uxthmi	r5, r5
 8001ef2:	6031      	str	r1, [r6, #0]
 8001ef4:	07d9      	lsls	r1, r3, #31
 8001ef6:	bf44      	itt	mi
 8001ef8:	f043 0320 	orrmi.w	r3, r3, #32
 8001efc:	6023      	strmi	r3, [r4, #0]
 8001efe:	b11d      	cbz	r5, 8001f08 <_printf_i+0x1a0>
 8001f00:	2310      	movs	r3, #16
 8001f02:	e7ab      	b.n	8001e5c <_printf_i+0xf4>
 8001f04:	4826      	ldr	r0, [pc, #152]	@ (8001fa0 <_printf_i+0x238>)
 8001f06:	e7e9      	b.n	8001edc <_printf_i+0x174>
 8001f08:	6823      	ldr	r3, [r4, #0]
 8001f0a:	f023 0320 	bic.w	r3, r3, #32
 8001f0e:	6023      	str	r3, [r4, #0]
 8001f10:	e7f6      	b.n	8001f00 <_printf_i+0x198>
 8001f12:	4616      	mov	r6, r2
 8001f14:	e7bd      	b.n	8001e92 <_printf_i+0x12a>
 8001f16:	6833      	ldr	r3, [r6, #0]
 8001f18:	6825      	ldr	r5, [r4, #0]
 8001f1a:	1d18      	adds	r0, r3, #4
 8001f1c:	6961      	ldr	r1, [r4, #20]
 8001f1e:	6030      	str	r0, [r6, #0]
 8001f20:	062e      	lsls	r6, r5, #24
 8001f22:	681b      	ldr	r3, [r3, #0]
 8001f24:	d501      	bpl.n	8001f2a <_printf_i+0x1c2>
 8001f26:	6019      	str	r1, [r3, #0]
 8001f28:	e002      	b.n	8001f30 <_printf_i+0x1c8>
 8001f2a:	0668      	lsls	r0, r5, #25
 8001f2c:	d5fb      	bpl.n	8001f26 <_printf_i+0x1be>
 8001f2e:	8019      	strh	r1, [r3, #0]
 8001f30:	2300      	movs	r3, #0
 8001f32:	4616      	mov	r6, r2
 8001f34:	6123      	str	r3, [r4, #16]
 8001f36:	e7bc      	b.n	8001eb2 <_printf_i+0x14a>
 8001f38:	6833      	ldr	r3, [r6, #0]
 8001f3a:	2100      	movs	r1, #0
 8001f3c:	1d1a      	adds	r2, r3, #4
 8001f3e:	6032      	str	r2, [r6, #0]
 8001f40:	681e      	ldr	r6, [r3, #0]
 8001f42:	6862      	ldr	r2, [r4, #4]
 8001f44:	4630      	mov	r0, r6
 8001f46:	f000 f859 	bl	8001ffc <memchr>
 8001f4a:	b108      	cbz	r0, 8001f50 <_printf_i+0x1e8>
 8001f4c:	1b80      	subs	r0, r0, r6
 8001f4e:	6060      	str	r0, [r4, #4]
 8001f50:	6863      	ldr	r3, [r4, #4]
 8001f52:	6123      	str	r3, [r4, #16]
 8001f54:	2300      	movs	r3, #0
 8001f56:	f884 3043 	strb.w	r3, [r4, #67]	@ 0x43
 8001f5a:	e7aa      	b.n	8001eb2 <_printf_i+0x14a>
 8001f5c:	4632      	mov	r2, r6
 8001f5e:	4649      	mov	r1, r9
 8001f60:	4640      	mov	r0, r8
 8001f62:	6923      	ldr	r3, [r4, #16]
 8001f64:	47d0      	blx	sl
 8001f66:	3001      	adds	r0, #1
 8001f68:	d0ad      	beq.n	8001ec6 <_printf_i+0x15e>
 8001f6a:	6823      	ldr	r3, [r4, #0]
 8001f6c:	079b      	lsls	r3, r3, #30
 8001f6e:	d413      	bmi.n	8001f98 <_printf_i+0x230>
 8001f70:	68e0      	ldr	r0, [r4, #12]
 8001f72:	9b03      	ldr	r3, [sp, #12]
 8001f74:	4298      	cmp	r0, r3
 8001f76:	bfb8      	it	lt
 8001f78:	4618      	movlt	r0, r3
 8001f7a:	e7a6      	b.n	8001eca <_printf_i+0x162>
 8001f7c:	2301      	movs	r3, #1
 8001f7e:	4632      	mov	r2, r6
 8001f80:	4649      	mov	r1, r9
 8001f82:	4640      	mov	r0, r8
 8001f84:	47d0      	blx	sl
 8001f86:	3001      	adds	r0, #1
 8001f88:	d09d      	beq.n	8001ec6 <_printf_i+0x15e>
 8001f8a:	3501      	adds	r5, #1
 8001f8c:	68e3      	ldr	r3, [r4, #12]
 8001f8e:	9903      	ldr	r1, [sp, #12]
 8001f90:	1a5b      	subs	r3, r3, r1
 8001f92:	42ab      	cmp	r3, r5
 8001f94:	dcf2      	bgt.n	8001f7c <_printf_i+0x214>
 8001f96:	e7eb      	b.n	8001f70 <_printf_i+0x208>
 8001f98:	2500      	movs	r5, #0
 8001f9a:	f104 0619 	add.w	r6, r4, #25
 8001f9e:	e7f5      	b.n	8001f8c <_printf_i+0x224>
 8001fa0:	08002113 	.word	0x08002113
 8001fa4:	08002124 	.word	0x08002124

08001fa8 <memmove>:
 8001fa8:	4288      	cmp	r0, r1
 8001faa:	b510      	push	{r4, lr}
 8001fac:	eb01 0402 	add.w	r4, r1, r2
 8001fb0:	d902      	bls.n	8001fb8 <memmove+0x10>
 8001fb2:	4284      	cmp	r4, r0
 8001fb4:	4623      	mov	r3, r4
 8001fb6:	d807      	bhi.n	8001fc8 <memmove+0x20>
 8001fb8:	1e43      	subs	r3, r0, #1
 8001fba:	42a1      	cmp	r1, r4
 8001fbc:	d008      	beq.n	8001fd0 <memmove+0x28>
 8001fbe:	f811 2b01 	ldrb.w	r2, [r1], #1
 8001fc2:	f803 2f01 	strb.w	r2, [r3, #1]!
 8001fc6:	e7f8      	b.n	8001fba <memmove+0x12>
 8001fc8:	4601      	mov	r1, r0
 8001fca:	4402      	add	r2, r0
 8001fcc:	428a      	cmp	r2, r1
 8001fce:	d100      	bne.n	8001fd2 <memmove+0x2a>
 8001fd0:	bd10      	pop	{r4, pc}
 8001fd2:	f813 4d01 	ldrb.w	r4, [r3, #-1]!
 8001fd6:	f802 4d01 	strb.w	r4, [r2, #-1]!
 8001fda:	e7f7      	b.n	8001fcc <memmove+0x24>

08001fdc <_sbrk_r>:
 8001fdc:	b538      	push	{r3, r4, r5, lr}
 8001fde:	2300      	movs	r3, #0
 8001fe0:	4d05      	ldr	r5, [pc, #20]	@ (8001ff8 <_sbrk_r+0x1c>)
 8001fe2:	4604      	mov	r4, r0
 8001fe4:	4608      	mov	r0, r1
 8001fe6:	602b      	str	r3, [r5, #0]
 8001fe8:	f7fe fa26 	bl	8000438 <_sbrk>
 8001fec:	1c43      	adds	r3, r0, #1
 8001fee:	d102      	bne.n	8001ff6 <_sbrk_r+0x1a>
 8001ff0:	682b      	ldr	r3, [r5, #0]
 8001ff2:	b103      	cbz	r3, 8001ff6 <_sbrk_r+0x1a>
 8001ff4:	6023      	str	r3, [r4, #0]
 8001ff6:	bd38      	pop	{r3, r4, r5, pc}
 8001ff8:	20000200 	.word	0x20000200

08001ffc <memchr>:
 8001ffc:	4603      	mov	r3, r0
 8001ffe:	b510      	push	{r4, lr}
 8002000:	b2c9      	uxtb	r1, r1
 8002002:	4402      	add	r2, r0
 8002004:	4293      	cmp	r3, r2
 8002006:	4618      	mov	r0, r3
 8002008:	d101      	bne.n	800200e <memchr+0x12>
 800200a:	2000      	movs	r0, #0
 800200c:	e003      	b.n	8002016 <memchr+0x1a>
 800200e:	7804      	ldrb	r4, [r0, #0]
 8002010:	3301      	adds	r3, #1
 8002012:	428c      	cmp	r4, r1
 8002014:	d1f6      	bne.n	8002004 <memchr+0x8>
 8002016:	bd10      	pop	{r4, pc}

08002018 <memcpy>:
 8002018:	440a      	add	r2, r1
 800201a:	4291      	cmp	r1, r2
 800201c:	f100 33ff 	add.w	r3, r0, #4294967295
 8002020:	d100      	bne.n	8002024 <memcpy+0xc>
 8002022:	4770      	bx	lr
 8002024:	b510      	push	{r4, lr}
 8002026:	f811 4b01 	ldrb.w	r4, [r1], #1
 800202a:	4291      	cmp	r1, r2
 800202c:	f803 4f01 	strb.w	r4, [r3, #1]!
 8002030:	d1f9      	bne.n	8002026 <memcpy+0xe>
 8002032:	bd10      	pop	{r4, pc}

08002034 <_realloc_r>:
 8002034:	e92d 41f0 	stmdb	sp!, {r4, r5, r6, r7, r8, lr}
 8002038:	4680      	mov	r8, r0
 800203a:	4615      	mov	r5, r2
 800203c:	460c      	mov	r4, r1
 800203e:	b921      	cbnz	r1, 800204a <_realloc_r+0x16>
 8002040:	4611      	mov	r1, r2
 8002042:	e8bd 41f0 	ldmia.w	sp!, {r4, r5, r6, r7, r8, lr}
 8002046:	f7ff bc39 	b.w	80018bc <_malloc_r>
 800204a:	b92a      	cbnz	r2, 8002058 <_realloc_r+0x24>
 800204c:	f7ff fbcc 	bl	80017e8 <_free_r>
 8002050:	2400      	movs	r4, #0
 8002052:	4620      	mov	r0, r4
 8002054:	e8bd 81f0 	ldmia.w	sp!, {r4, r5, r6, r7, r8, pc}
 8002058:	f000 f81a 	bl	8002090 <_malloc_usable_size_r>
 800205c:	4285      	cmp	r5, r0
 800205e:	4606      	mov	r6, r0
 8002060:	d802      	bhi.n	8002068 <_realloc_r+0x34>
 8002062:	ebb5 0f50 	cmp.w	r5, r0, lsr #1
 8002066:	d8f4      	bhi.n	8002052 <_realloc_r+0x1e>
 8002068:	4629      	mov	r1, r5
 800206a:	4640      	mov	r0, r8
 800206c:	f7ff fc26 	bl	80018bc <_malloc_r>
 8002070:	4607      	mov	r7, r0
 8002072:	2800      	cmp	r0, #0
 8002074:	d0ec      	beq.n	8002050 <_realloc_r+0x1c>
 8002076:	42b5      	cmp	r5, r6
 8002078:	462a      	mov	r2, r5
 800207a:	4621      	mov	r1, r4
 800207c:	bf28      	it	cs
 800207e:	4632      	movcs	r2, r6
 8002080:	f7ff ffca 	bl	8002018 <memcpy>
 8002084:	4621      	mov	r1, r4
 8002086:	4640      	mov	r0, r8
 8002088:	f7ff fbae 	bl	80017e8 <_free_r>
 800208c:	463c      	mov	r4, r7
 800208e:	e7e0      	b.n	8002052 <_realloc_r+0x1e>

08002090 <_malloc_usable_size_r>:
 8002090:	f851 3c04 	ldr.w	r3, [r1, #-4]
 8002094:	1f18      	subs	r0, r3, #4
 8002096:	2b00      	cmp	r3, #0
 8002098:	bfbc      	itt	lt
 800209a:	580b      	ldrlt	r3, [r1, r0]
 800209c:	18c0      	addlt	r0, r0, r3
 800209e:	4770      	bx	lr

080020a0 <_init>:
 80020a0:	b5f8      	push	{r3, r4, r5, r6, r7, lr}
 80020a2:	bf00      	nop
 80020a4:	bcf8      	pop	{r3, r4, r5, r6, r7}
 80020a6:	bc08      	pop	{r3}
 80020a8:	469e      	mov	lr, r3
 80020aa:	4770      	bx	lr

080020ac <_fini>:
 80020ac:	b5f8      	push	{r3, r4, r5, r6, r7, lr}
 80020ae:	bf00      	nop
 80020b0:	bcf8      	pop	{r3, r4, r5, r6, r7}
 80020b2:	bc08      	pop	{r3}
 80020b4:	469e      	mov	lr, r3
 80020b6:	4770      	bx	lr
